	.file	"aes.c"
	.text
.Ltext0:
	.type	KeyExpansion, @function
KeyExpansion:
.LVL0:
.LFB11:
	.file 1 "aes.c"
	.loc 1 155 1 view -0
	.cfi_startproc
	.loc 1 155 1 is_stmt 0 view .LVU1
	pushq	%rbx
	.cfi_def_cfa_offset 16
	.cfi_offset 3, -16
	.loc 1 156 3 is_stmt 1 view .LVU2
	.loc 1 157 3 view .LVU3
	.loc 1 160 3 view .LVU4
.LVL1:
	.loc 1 160 15 view .LVU5
	movq	%rdi, %r8
	leaq	32(%rsi), %rdx
.LVL2:
.L2:
	.loc 1 162 5 discriminator 3 view .LVU6
	.loc 1 162 32 is_stmt 0 discriminator 3 view .LVU7
	movzbl	(%rsi), %eax
	.loc 1 162 27 discriminator 3 view .LVU8
	movb	%al, (%rdi)
	.loc 1 163 5 is_stmt 1 discriminator 3 view .LVU9
	.loc 1 163 32 is_stmt 0 discriminator 3 view .LVU10
	movzbl	1(%rsi), %eax
	.loc 1 163 27 discriminator 3 view .LVU11
	movb	%al, 1(%rdi)
	.loc 1 164 5 is_stmt 1 discriminator 3 view .LVU12
	.loc 1 164 32 is_stmt 0 discriminator 3 view .LVU13
	movzbl	2(%rsi), %eax
	.loc 1 164 27 discriminator 3 view .LVU14
	movb	%al, 2(%rdi)
	.loc 1 165 5 is_stmt 1 discriminator 3 view .LVU15
	.loc 1 165 32 is_stmt 0 discriminator 3 view .LVU16
	movzbl	3(%rsi), %eax
	.loc 1 165 27 discriminator 3 view .LVU17
	movb	%al, 3(%rdi)
	.loc 1 160 23 is_stmt 1 discriminator 3 view .LVU18
	.loc 1 160 15 discriminator 3 view .LVU19
	addq	$4, %rsi
	addq	$4, %rdi
	.loc 1 160 3 is_stmt 0 discriminator 3 view .LVU20
	cmpq	%rdx, %rsi
	jne	.L2
	.loc 1 169 10 view .LVU21
	movl	$8, %r9d
	.loc 1 212 20 view .LVU22
	leaq	sbox(%rip), %r10
	.loc 1 205 33 view .LVU23
	leaq	Rcon(%rip), %r11
	jmp	.L5
.LVL3:
.L3:
	.loc 1 208 5 is_stmt 1 view .LVU24
	.loc 1 208 8 is_stmt 0 view .LVU25
	cmpl	$4, %ebx
	jne	.L4
	.loc 1 212 9 is_stmt 1 view .LVU26
	.loc 1 212 20 is_stmt 0 view .LVU27
	movzbl	%dil, %edi
.LVL4:
	.loc 1 212 20 view .LVU28
	movzbl	(%r10,%rdi), %edi
.LVL5:
	.loc 1 213 9 is_stmt 1 view .LVU29
	.loc 1 213 20 is_stmt 0 view .LVU30
	movzbl	%sil, %esi
.LVL6:
	.loc 1 213 20 view .LVU31
	movzbl	(%r10,%rsi), %esi
.LVL7:
	.loc 1 214 9 is_stmt 1 view .LVU32
	.loc 1 214 20 is_stmt 0 view .LVU33
	movzbl	%cl, %ecx
.LVL8:
	.loc 1 214 20 view .LVU34
	movzbl	(%r10,%rcx), %ecx
.LVL9:
	.loc 1 215 9 is_stmt 1 view .LVU35
	.loc 1 215 20 is_stmt 0 view .LVU36
	movzbl	%dl, %edx
.LVL10:
	.loc 1 215 20 view .LVU37
	movzbl	(%r10,%rdx), %edx
.LVL11:
.L4:
	.loc 1 219 5 is_stmt 1 discriminator 2 view .LVU38
	.loc 1 219 16 discriminator 2 view .LVU39
	.loc 1 220 5 discriminator 2 view .LVU40
	.loc 1 220 21 is_stmt 0 discriminator 2 view .LVU41
	xorb	(%rax), %dil
.LVL12:
	.loc 1 220 21 discriminator 2 view .LVU42
	movb	%dil, 32(%rax)
	.loc 1 221 5 is_stmt 1 discriminator 2 view .LVU43
	.loc 1 221 21 is_stmt 0 discriminator 2 view .LVU44
	xorb	1(%rax), %sil
.LVL13:
	.loc 1 221 21 discriminator 2 view .LVU45
	movb	%sil, 33(%rax)
	.loc 1 222 5 is_stmt 1 discriminator 2 view .LVU46
	.loc 1 222 21 is_stmt 0 discriminator 2 view .LVU47
	xorb	2(%rax), %cl
.LVL14:
	.loc 1 222 21 discriminator 2 view .LVU48
	movb	%cl, 34(%rax)
	.loc 1 223 5 is_stmt 1 discriminator 2 view .LVU49
	.loc 1 223 21 is_stmt 0 discriminator 2 view .LVU50
	xorb	3(%rax), %dl
.LVL15:
	.loc 1 223 21 discriminator 2 view .LVU51
	movb	%dl, 35(%rax)
	.loc 1 169 35 is_stmt 1 discriminator 2 view .LVU52
	incl	%r9d
.LVL16:
	.loc 1 169 16 discriminator 2 view .LVU53
	addq	$4, %r8
.LVL17:
	.loc 1 169 3 is_stmt 0 discriminator 2 view .LVU54
	cmpl	$60, %r9d
	je	.L9
.LVL18:
.L5:
	.loc 1 172 7 is_stmt 1 view .LVU55
	.loc 1 173 7 view .LVU56
	movq	%r8, %rax
	.loc 1 173 24 is_stmt 0 view .LVU57
	movzbl	28(%r8), %edi
.LVL19:
	.loc 1 174 7 is_stmt 1 view .LVU58
	.loc 1 174 24 is_stmt 0 view .LVU59
	movzbl	29(%r8), %esi
.LVL20:
	.loc 1 175 7 is_stmt 1 view .LVU60
	.loc 1 175 24 is_stmt 0 view .LVU61
	movzbl	30(%r8), %ecx
.LVL21:
	.loc 1 176 7 is_stmt 1 view .LVU62
	.loc 1 176 24 is_stmt 0 view .LVU63
	movzbl	31(%r8), %edx
.LVL22:
	.loc 1 180 5 is_stmt 1 view .LVU64
	.loc 1 180 8 is_stmt 0 view .LVU65
	movl	%r9d, %ebx
	andl	$7, %ebx
	jne	.L3
	.loc 1 187 9 is_stmt 1 view .LVU66
.LVL23:
	.loc 1 188 9 view .LVU67
	.loc 1 189 9 view .LVU68
	.loc 1 190 9 view .LVU69
	.loc 1 191 9 view .LVU70
	.loc 1 199 9 view .LVU71
	.loc 1 199 20 is_stmt 0 view .LVU72
	movzbl	%sil, %esi
.LVL24:
	.loc 1 199 20 view .LVU73
	movzbl	(%r10,%rsi), %ebx
.LVL25:
	.loc 1 200 9 is_stmt 1 view .LVU74
	.loc 1 200 20 is_stmt 0 view .LVU75
	movzbl	%cl, %ecx
.LVL26:
	.loc 1 200 20 view .LVU76
	movzbl	(%r10,%rcx), %esi
.LVL27:
	.loc 1 201 9 is_stmt 1 view .LVU77
	.loc 1 201 20 is_stmt 0 view .LVU78
	movzbl	%dl, %edx
.LVL28:
	.loc 1 201 20 view .LVU79
	movzbl	(%r10,%rdx), %ecx
.LVL29:
	.loc 1 202 9 is_stmt 1 view .LVU80
	.loc 1 202 20 is_stmt 0 view .LVU81
	movzbl	%dil, %edi
.LVL30:
	.loc 1 202 20 view .LVU82
	movzbl	(%r10,%rdi), %edx
.LVL31:
	.loc 1 205 7 is_stmt 1 view .LVU83
	.loc 1 205 35 is_stmt 0 view .LVU84
	movl	%r9d, %edi
	shrl	$3, %edi
	.loc 1 205 33 view .LVU85
	movl	%edi, %edi
	.loc 1 205 16 view .LVU86
	xorb	(%r11,%rdi), %bl
.LVL32:
	.loc 1 205 16 view .LVU87
	movl	%ebx, %edi
.LVL33:
	.loc 1 208 5 is_stmt 1 view .LVU88
	jmp	.L4
.LVL34:
.L9:
	.loc 1 225 1 is_stmt 0 view .LVU89
	popq	%rbx
	.cfi_def_cfa_offset 8
	ret
	.cfi_endproc
.LFE11:
	.size	KeyExpansion, .-KeyExpansion
	.type	AddRoundKey, @function
AddRoundKey:
.LVL35:
.LFB15:
	.loc 1 246 1 is_stmt 1 view -0
	.cfi_startproc
.L11:
	.loc 1 246 1 is_stmt 0 view .LVU91
	endbr64
	.loc 1 247 3 is_stmt 1 view .LVU92
	.loc 1 248 22 view .LVU93
.LVL36:
	.loc 1 248 34 view .LVU94
	salq	$4, %rdi
.LVL37:
	.loc 1 248 34 is_stmt 0 view .LVU95
	andl	$4080, %edi
	addq	%rdx, %rdi
	leaq	4(%rsi), %rcx
	leaq	20(%rsi), %r8
.LVL38:
.L12:
	.loc 1 250 36 is_stmt 1 view .LVU96
	leaq	-4(%rcx), %rax
	.loc 1 246 1 is_stmt 0 view .LVU97
	movq	%rdi, %rdx
.LVL39:
.L13:
.LDL1:
	.loc 1 252 7 is_stmt 1 discriminator 3 view .LVU98
	.loc 1 252 22 is_stmt 0 discriminator 3 view .LVU99
	movzbl	(%rdx), %esi
	xorb	%sil, (%rax)
	.loc 1 250 43 is_stmt 1 discriminator 3 view .LVU100
	.loc 1 250 36 discriminator 3 view .LVU101
	incq	%rax
	.loc 1 250 36 is_stmt 0 discriminator 3 view .LVU102
	incq	%rdx
	.loc 1 250 24 discriminator 3 view .LVU103
	cmpq	%rcx, %rax
	jne	.L13
	.loc 1 248 41 is_stmt 1 discriminator 2 view .LVU104
	.loc 1 248 34 discriminator 2 view .LVU105
	addq	$4, %rdi
	addq	$4, %rcx
	.loc 1 248 22 is_stmt 0 discriminator 2 view .LVU106
	cmpq	%r8, %rcx
	jne	.L12
	.loc 1 255 1 view .LVU107
	ret
	.cfi_endproc
.LFE15:
	.size	AddRoundKey, .-AddRoundKey
	.type	xtime, @function
xtime:
.LVL40:
.LFB18:
	.loc 1 303 1 is_stmt 1 view -0
	.cfi_startproc
	.loc 1 304 3 view .LVU109
	.loc 1 304 18 is_stmt 0 view .LVU110
	movl	%edi, %edx
	shrb	$7, %dl
	leal	(%rdx,%rdx), %eax
	addl	%edx, %eax
	leal	(%rax,%rax,8), %edx
	.loc 1 304 13 view .LVU111
	leal	(%rdi,%rdi), %eax
	.loc 1 304 18 view .LVU112
	xorl	%edx, %eax
	.loc 1 305 1 view .LVU113
	ret
	.cfi_endproc
.LFE18:
	.size	xtime, .-xtime
	.type	InvCipher, @function
InvCipher:
.LVL41:
.LFB24:
	.loc 1 444 1 is_stmt 1 view -0
	.cfi_startproc
	.loc 1 444 1 is_stmt 0 view .LVU115
	pushq	%r15
	.cfi_def_cfa_offset 16
	.cfi_offset 15, -16
	pushq	%r14
	.cfi_def_cfa_offset 24
	.cfi_offset 14, -24
	pushq	%r13
	.cfi_def_cfa_offset 32
	.cfi_offset 13, -32
	pushq	%r12
	.cfi_def_cfa_offset 40
	.cfi_offset 12, -40
	pushq	%rbp
	.cfi_def_cfa_offset 48
	.cfi_offset 6, -48
	pushq	%rbx
	.cfi_def_cfa_offset 56
	.cfi_offset 3, -56
	subq	$48, %rsp
	.cfi_def_cfa_offset 104
	movq	%rdi, %rbp
	movq	%rsi, 32(%rsp)
	.loc 1 445 3 is_stmt 1 view .LVU116
.LVL42:
	.loc 1 448 3 view .LVU117
	movq	%rsi, %rdx
	movq	%rdi, %rsi
.LVL43:
	.loc 1 448 3 is_stmt 0 view .LVU118
	movl	$14, %edi
.LVL44:
	.loc 1 448 3 view .LVU119
	call	AddRoundKey
.LVL45:
	.loc 1 453 3 is_stmt 1 view .LVU120
	.loc 1 453 26 view .LVU121
	.loc 1 448 3 is_stmt 0 view .LVU122
	movl	$13, 20(%rsp)
	jmp	.L22
.LVL46:
.L32:
	.loc 1 448 3 view .LVU123
	movq	24(%rsp), %rbp
.LVL47:
	.loc 1 453 37 is_stmt 1 discriminator 3 view .LVU124
	.loc 1 453 26 discriminator 3 view .LVU125
	.loc 1 453 3 is_stmt 0 discriminator 3 view .LVU126
	decl	20(%rsp)
.LVL48:
	.loc 1 453 3 discriminator 3 view .LVU127
	je	.L31
.L22:
.LVL49:
	.loc 1 455 5 is_stmt 1 view .LVU128
.LBB24:
.LBI24:
	.loc 1 383 13 view .LVU129
.LBB25:
	.loc 1 385 3 view .LVU130
	.loc 1 388 3 view .LVU131
	.loc 1 388 8 is_stmt 0 view .LVU132
	movzbl	13(%rbp), %eax
.LVL50:
	.loc 1 389 3 is_stmt 1 view .LVU133
	.loc 1 389 18 is_stmt 0 view .LVU134
	movzbl	9(%rbp), %edx
	movb	%dl, 13(%rbp)
	.loc 1 390 3 is_stmt 1 view .LVU135
	.loc 1 390 18 is_stmt 0 view .LVU136
	movzbl	5(%rbp), %edx
	movb	%dl, 9(%rbp)
	.loc 1 391 3 is_stmt 1 view .LVU137
	.loc 1 391 18 is_stmt 0 view .LVU138
	movzbl	1(%rbp), %edx
	movb	%dl, 5(%rbp)
	.loc 1 392 3 is_stmt 1 view .LVU139
	.loc 1 392 18 is_stmt 0 view .LVU140
	movb	%al, 1(%rbp)
	.loc 1 395 3 is_stmt 1 view .LVU141
	.loc 1 395 8 is_stmt 0 view .LVU142
	movzbl	2(%rbp), %eax
.LVL51:
	.loc 1 396 3 is_stmt 1 view .LVU143
	.loc 1 396 18 is_stmt 0 view .LVU144
	movzbl	10(%rbp), %edx
	movb	%dl, 2(%rbp)
	.loc 1 397 3 is_stmt 1 view .LVU145
	.loc 1 397 18 is_stmt 0 view .LVU146
	movb	%al, 10(%rbp)
	.loc 1 399 3 is_stmt 1 view .LVU147
	.loc 1 399 8 is_stmt 0 view .LVU148
	movzbl	6(%rbp), %eax
.LVL52:
	.loc 1 400 3 is_stmt 1 view .LVU149
	.loc 1 400 18 is_stmt 0 view .LVU150
	movzbl	14(%rbp), %edx
	movb	%dl, 6(%rbp)
	.loc 1 401 3 is_stmt 1 view .LVU151
	.loc 1 401 18 is_stmt 0 view .LVU152
	movb	%al, 14(%rbp)
	.loc 1 404 3 is_stmt 1 view .LVU153
	.loc 1 404 8 is_stmt 0 view .LVU154
	movzbl	3(%rbp), %eax
.LVL53:
	.loc 1 405 3 is_stmt 1 view .LVU155
	.loc 1 405 18 is_stmt 0 view .LVU156
	movzbl	7(%rbp), %edx
	movb	%dl, 3(%rbp)
	.loc 1 406 3 is_stmt 1 view .LVU157
	.loc 1 406 18 is_stmt 0 view .LVU158
	movzbl	11(%rbp), %edx
	movb	%dl, 7(%rbp)
	.loc 1 407 3 is_stmt 1 view .LVU159
	.loc 1 407 18 is_stmt 0 view .LVU160
	movzbl	15(%rbp), %edx
	movb	%dl, 11(%rbp)
	.loc 1 408 3 is_stmt 1 view .LVU161
	.loc 1 408 18 is_stmt 0 view .LVU162
	movb	%al, 15(%rbp)
.LVL54:
	.loc 1 408 18 view .LVU163
.LBE25:
.LBE24:
.LBB27:
.LBB28:
	.loc 1 374 15 is_stmt 1 view .LVU164
	movq	%rbp, 40(%rsp)
	leaq	4(%rbp), %rdi
.LBE28:
.LBE27:
.LBB31:
.LBB26:
	.loc 1 408 18 is_stmt 0 view .LVU165
	movq	%rbp, %rdx
.LVL55:
.L18:
	.loc 1 408 18 view .LVU166
.LBE26:
.LBE31:
.LBB32:
.LBB29:
	.loc 1 376 17 is_stmt 1 view .LVU167
.LBE29:
.LBE32:
	.loc 1 448 3 is_stmt 0 view .LVU168
	movq	%rdx, %rax
.LBB33:
.LBB30:
	.loc 1 376 5 view .LVU169
	leaq	16(%rdx), %rcx
.LVL56:
.L19:
	.loc 1 378 7 is_stmt 1 view .LVU170
	.loc 1 378 24 is_stmt 0 view .LVU171
	movzbl	(%rax), %esi
	.loc 1 378 22 view .LVU172
	leaq	rsbox(%rip), %rbx
	movzbl	(%rbx,%rsi), %esi
	movb	%sil, (%rax)
	.loc 1 376 24 is_stmt 1 view .LVU173
	.loc 1 376 17 view .LVU174
	addq	$4, %rax
	.loc 1 376 5 is_stmt 0 view .LVU175
	cmpq	%rcx, %rax
	jne	.L19
	.loc 1 374 22 is_stmt 1 view .LVU176
.LVL57:
	.loc 1 374 15 view .LVU177
	incq	%rdx
.LVL58:
	.loc 1 374 3 is_stmt 0 view .LVU178
	cmpq	%rdi, %rdx
	jne	.L18
	.loc 1 374 3 view .LVU179
.LBE30:
.LBE33:
	.loc 1 457 5 is_stmt 1 discriminator 3 view .LVU180
	movq	32(%rsp), %rdx
	movq	%rbp, %rsi
	movl	20(%rsp), %edi
	call	AddRoundKey
.LVL59:
	.loc 1 458 5 discriminator 3 view .LVU181
.LBB34:
.LBI34:
	.loc 1 350 13 discriminator 3 view .LVU182
.LBB35:
	.loc 1 354 15 discriminator 3 view .LVU183
	leaq	16(%rbp), %rax
	movq	%rax, 8(%rsp)
.LBE35:
.LBE34:
	.loc 1 457 5 is_stmt 0 discriminator 3 view .LVU184
	movq	%rbp, %r13
	movq	%rbp, 24(%rsp)
.LVL60:
.L21:
.LBB37:
.LBB36:
	.loc 1 356 5 is_stmt 1 view .LVU185
	.loc 1 356 7 is_stmt 0 view .LVU186
	movzbl	0(%r13), %r14d
.LVL61:
	.loc 1 357 5 is_stmt 1 view .LVU187
	.loc 1 357 7 is_stmt 0 view .LVU188
	movzbl	1(%r13), %r12d
.LVL62:
	.loc 1 358 5 is_stmt 1 view .LVU189
	.loc 1 358 7 is_stmt 0 view .LVU190
	movzbl	2(%r13), %ebp
.LVL63:
	.loc 1 359 5 is_stmt 1 view .LVU191
	.loc 1 359 7 is_stmt 0 view .LVU192
	movzbl	3(%r13), %r15d
.LVL64:
	.loc 1 361 5 is_stmt 1 view .LVU193
	.loc 1 361 22 is_stmt 0 view .LVU194
	movzbl	%r14b, %edi
	call	xtime
.LVL65:
	movb	%al, 3(%rsp)
	movzbl	%al, %edi
	call	xtime
.LVL66:
	movb	%al, 4(%rsp)
	movzbl	%al, %edi
	call	xtime
.LVL67:
	movb	%al, 5(%rsp)
	.loc 1 361 42 view .LVU195
	movzbl	%r12b, %edi
	call	xtime
.LVL68:
	movb	%al, 6(%rsp)
	movzbl	%al, %edi
	call	xtime
.LVL69:
	movb	%al, 7(%rsp)
	movzbl	%al, %edi
	call	xtime
.LVL70:
	movb	%al, 16(%rsp)
	.loc 1 361 62 view .LVU196
	movzbl	%bpl, %edi
	call	xtime
.LVL71:
	movb	%al, 17(%rsp)
	movzbl	%al, %edi
	call	xtime
.LVL72:
	movb	%al, 2(%rsp)
	movzbl	%al, %edi
	call	xtime
.LVL73:
	movb	%al, 18(%rsp)
	.loc 1 361 82 view .LVU197
	movzbl	%r15b, %edi
	call	xtime
.LVL74:
	movb	%al, 19(%rsp)
	movzbl	%al, %edi
	call	xtime
.LVL75:
	movl	%eax, %ebx
	movzbl	%al, %edi
	call	xtime
.LVL76:
	movl	%eax, %ecx
	.loc 1 361 80 view .LVU198
	movzbl	3(%rsp), %esi
	movl	%esi, %edi
	movzbl	4(%rsp), %edx
	xorl	%edx, %edi
	movl	%edi, %eax
	movzbl	5(%rsp), %r8d
	xorl	%r8d, %eax
	movzbl	6(%rsp), %edi
	xorl	%edi, %eax
	movzbl	16(%rsp), %r9d
	xorl	%r9d, %eax
	xorb	2(%rsp), %al
	movzbl	18(%rsp), %r10d
	xorl	%r10d, %eax
	xorl	%ecx, %eax
	xorl	%r12d, %eax
	xorl	%ebp, %eax
	xorl	%r15d, %eax
	movb	%al, 0(%r13)
	.loc 1 362 5 is_stmt 1 view .LVU199
	.loc 1 362 80 is_stmt 0 view .LVU200
	movl	%edi, %eax
	movl	%r8d, %edi
	xorl	%edi, %eax
	movzbl	7(%rsp), %r11d
	xorl	%r11d, %eax
	xorl	%r9d, %eax
	movzbl	17(%rsp), %r8d
	xorl	%r8d, %eax
	xorl	%r10d, %eax
	xorl	%ebx, %eax
	xorl	%ecx, %eax
	xorl	%r14d, %eax
	xorl	%ebp, %eax
	xorl	%r15d, %eax
	movb	%al, 1(%r13)
	.loc 1 363 5 is_stmt 1 view .LVU201
	.loc 1 363 80 is_stmt 0 view .LVU202
	xorl	%edi, %edx
	xorl	%r9d, %edx
	xorl	%r8d, %edx
	xorb	2(%rsp), %dl
	xorl	%r10d, %edx
	movzbl	19(%rsp), %r8d
	xorl	%r8d, %edx
	xorl	%ecx, %edx
	xorl	%r14d, %edx
	xorl	%r12d, %edx
	xorl	%edx, %r15d
.LVL77:
	.loc 1 363 80 view .LVU203
	movb	%r15b, 2(%r13)
	.loc 1 364 5 is_stmt 1 view .LVU204
	.loc 1 364 80 is_stmt 0 view .LVU205
	movl	%esi, %eax
	xorl	%edi, %eax
	xorl	%r11d, %eax
	xorl	%r9d, %eax
	xorl	%r10d, %eax
	xorl	%r8d, %eax
	xorl	%eax, %ebx
	xorl	%ecx, %ebx
	xorl	%ebx, %r14d
.LVL78:
	.loc 1 364 80 view .LVU206
	xorl	%r14d, %r12d
.LVL79:
	.loc 1 364 80 view .LVU207
	xorl	%r12d, %ebp
.LVL80:
	.loc 1 364 80 view .LVU208
	movb	%bpl, 3(%r13)
	.loc 1 354 22 is_stmt 1 view .LVU209
	.loc 1 354 15 view .LVU210
	addq	$4, %r13
	.loc 1 354 3 is_stmt 0 view .LVU211
	cmpq	8(%rsp), %r13
	jne	.L21
	jmp	.L32
.LVL81:
.L31:
	.loc 1 354 3 view .LVU212
.LBE36:
.LBE37:
	.loc 1 463 3 is_stmt 1 view .LVU213
.LBB38:
.LBI38:
	.loc 1 383 13 view .LVU214
.LBB39:
	.loc 1 385 3 view .LVU215
	.loc 1 388 3 view .LVU216
	.loc 1 388 8 is_stmt 0 view .LVU217
	movzbl	13(%rbp), %eax
.LVL82:
	.loc 1 389 3 is_stmt 1 view .LVU218
	.loc 1 389 18 is_stmt 0 view .LVU219
	movzbl	9(%rbp), %edx
	movb	%dl, 13(%rbp)
	.loc 1 390 3 is_stmt 1 view .LVU220
	.loc 1 390 18 is_stmt 0 view .LVU221
	movzbl	5(%rbp), %edx
	movb	%dl, 9(%rbp)
	.loc 1 391 3 is_stmt 1 view .LVU222
	.loc 1 391 18 is_stmt 0 view .LVU223
	movzbl	1(%rbp), %edx
	movb	%dl, 5(%rbp)
	.loc 1 392 3 is_stmt 1 view .LVU224
	.loc 1 392 18 is_stmt 0 view .LVU225
	movb	%al, 1(%rbp)
	.loc 1 395 3 is_stmt 1 view .LVU226
	.loc 1 395 8 is_stmt 0 view .LVU227
	movzbl	2(%rbp), %eax
.LVL83:
	.loc 1 396 3 is_stmt 1 view .LVU228
	.loc 1 396 18 is_stmt 0 view .LVU229
	movzbl	10(%rbp), %edx
	movb	%dl, 2(%rbp)
	.loc 1 397 3 is_stmt 1 view .LVU230
	.loc 1 397 18 is_stmt 0 view .LVU231
	movb	%al, 10(%rbp)
	.loc 1 399 3 is_stmt 1 view .LVU232
	.loc 1 399 8 is_stmt 0 view .LVU233
	movzbl	6(%rbp), %eax
.LVL84:
	.loc 1 400 3 is_stmt 1 view .LVU234
	.loc 1 400 18 is_stmt 0 view .LVU235
	movzbl	14(%rbp), %edx
	movb	%dl, 6(%rbp)
	.loc 1 401 3 is_stmt 1 view .LVU236
	.loc 1 401 18 is_stmt 0 view .LVU237
	movb	%al, 14(%rbp)
	.loc 1 404 3 is_stmt 1 view .LVU238
	.loc 1 404 8 is_stmt 0 view .LVU239
	movzbl	3(%rbp), %eax
.LVL85:
	.loc 1 405 3 is_stmt 1 view .LVU240
	.loc 1 405 18 is_stmt 0 view .LVU241
	movzbl	7(%rbp), %edx
	movb	%dl, 3(%rbp)
	.loc 1 406 3 is_stmt 1 view .LVU242
	.loc 1 406 18 is_stmt 0 view .LVU243
	movzbl	11(%rbp), %edx
	movb	%dl, 7(%rbp)
	.loc 1 407 3 is_stmt 1 view .LVU244
	.loc 1 407 18 is_stmt 0 view .LVU245
	movzbl	15(%rbp), %edx
	movb	%dl, 11(%rbp)
	.loc 1 408 3 is_stmt 1 view .LVU246
	.loc 1 408 18 is_stmt 0 view .LVU247
	movb	%al, 15(%rbp)
.LVL86:
	.loc 1 408 18 view .LVU248
.LBE39:
.LBE38:
.LBB40:
.LBB41:
	.loc 1 374 15 is_stmt 1 view .LVU249
	movq	40(%rsp), %rcx
	addq	$20, %rcx
	.loc 1 378 24 is_stmt 0 view .LVU250
	leaq	rsbox(%rip), %rsi
	movq	8(%rsp), %rdx
	jmp	.L23
.LVL87:
.L33:
	.loc 1 374 22 is_stmt 1 view .LVU251
	.loc 1 374 15 view .LVU252
	incq	%rdx
.LVL88:
	.loc 1 374 3 is_stmt 0 view .LVU253
	cmpq	%rcx, %rdx
	je	.L25
.L23:
.LVL89:
	.loc 1 376 17 is_stmt 1 view .LVU254
	leaq	-16(%rdx), %rax
.LVL90:
.L24:
	.loc 1 378 7 view .LVU255
	.loc 1 378 24 is_stmt 0 view .LVU256
	movzbl	(%rax), %edi
	.loc 1 378 22 view .LVU257
	movzbl	(%rsi,%rdi), %edi
	movb	%dil, (%rax)
	.loc 1 376 24 is_stmt 1 view .LVU258
	.loc 1 376 17 view .LVU259
	addq	$4, %rax
	.loc 1 376 5 is_stmt 0 view .LVU260
	cmpq	%rdx, %rax
	jne	.L24
	jmp	.L33
.LVL91:
.L25:
	.loc 1 376 5 view .LVU261
.LBE41:
.LBE40:
	.loc 1 465 3 is_stmt 1 view .LVU262
	movq	32(%rsp), %rdx
	movq	%rbp, %rsi
	movl	$0, %edi
	call	AddRoundKey
.LVL92:
	.loc 1 466 1 is_stmt 0 view .LVU263
	addq	$48, %rsp
	.cfi_def_cfa_offset 56
	popq	%rbx
	.cfi_def_cfa_offset 48
	popq	%rbp
	.cfi_def_cfa_offset 40
	popq	%r12
	.cfi_def_cfa_offset 32
	popq	%r13
	.cfi_def_cfa_offset 24
	popq	%r14
	.cfi_def_cfa_offset 16
	popq	%r15
	.cfi_def_cfa_offset 8
	ret
	.cfi_endproc
.LFE24:
	.size	InvCipher, .-InvCipher
	.type	Cipher, @function
Cipher:
.LVL93:
.LFB23:
	.loc 1 414 1 is_stmt 1 view -0
	.cfi_startproc
	.loc 1 414 1 is_stmt 0 view .LVU265
	pushq	%r15
	.cfi_def_cfa_offset 16
	.cfi_offset 15, -16
	pushq	%r14
	.cfi_def_cfa_offset 24
	.cfi_offset 14, -24
	pushq	%r13
	.cfi_def_cfa_offset 32
	.cfi_offset 13, -32
	pushq	%r12
	.cfi_def_cfa_offset 40
	.cfi_offset 12, -40
	pushq	%rbp
	.cfi_def_cfa_offset 48
	.cfi_offset 6, -48
	pushq	%rbx
	.cfi_def_cfa_offset 56
	.cfi_offset 3, -56
	subq	$24, %rsp
	.cfi_def_cfa_offset 80
	movq	%rdi, %rbx
	movq	%rsi, 8(%rsp)
	.loc 1 415 3 is_stmt 1 view .LVU266
.LVL94:
	.loc 1 422 3 view .LVU267
	movq	%rsi, %rdx
	movq	%rdi, %rsi
.LVL95:
	.loc 1 422 3 is_stmt 0 view .LVU268
	movl	$0, %edi
.LVL96:
	.loc 1 422 3 view .LVU269
	call	AddRoundKey
.LVL97:
	.loc 1 427 3 is_stmt 1 view .LVU270
	.loc 1 427 19 view .LVU271
	.loc 1 422 3 is_stmt 0 view .LVU272
	movl	$1, 4(%rsp)
	jmp	.L35
.LVL98:
.L49:
	.loc 1 432 5 is_stmt 1 discriminator 3 view .LVU273
	movq	8(%rsp), %rdx
	movq	%rbx, %rsi
	movl	4(%rsp), %r14d
	movl	%r14d, %edi
	call	AddRoundKey
.LVL99:
	.loc 1 427 31 discriminator 3 view .LVU274
	.loc 1 427 19 discriminator 3 view .LVU275
	movl	%r14d, %eax
	incl	%eax
	movl	%eax, 4(%rsp)
	.loc 1 427 3 is_stmt 0 discriminator 3 view .LVU276
	cmpl	$14, %eax
	je	.L48
.LVL100:
.L35:
.LBB52:
.LBB53:
	.loc 1 262 15 is_stmt 1 view .LVU277
	movq	%rbx, 16(%rsp)
	leaq	4(%rbx), %rdi
.LBE53:
.LBE52:
	.loc 1 414 1 is_stmt 0 view .LVU278
	movq	%rbx, %rdx
.LVL101:
.L40:
.LBB56:
.LBB54:
	.loc 1 264 17 is_stmt 1 view .LVU279
.LBE54:
.LBE56:
	.loc 1 414 1 is_stmt 0 view .LVU280
	movq	%rdx, %rax
.LBB57:
.LBB55:
	.loc 1 264 5 view .LVU281
	leaq	16(%rdx), %rcx
.LVL102:
.L36:
	.loc 1 266 7 is_stmt 1 view .LVU282
	.loc 1 266 24 is_stmt 0 view .LVU283
	movzbl	(%rax), %esi
	.loc 1 266 22 view .LVU284
	leaq	sbox(%rip), %r8
	movzbl	(%r8,%rsi), %esi
	movb	%sil, (%rax)
	.loc 1 264 24 is_stmt 1 view .LVU285
	.loc 1 264 17 view .LVU286
	addq	$4, %rax
	.loc 1 264 5 is_stmt 0 view .LVU287
	cmpq	%rcx, %rax
	jne	.L36
	.loc 1 262 22 is_stmt 1 view .LVU288
.LVL103:
	.loc 1 262 15 view .LVU289
	incq	%rdx
.LVL104:
	.loc 1 262 3 is_stmt 0 view .LVU290
	cmpq	%rdi, %rdx
	jne	.L40
	.loc 1 262 3 view .LVU291
.LBE55:
.LBE57:
	.loc 1 430 5 is_stmt 1 view .LVU292
.LVL105:
.LBB58:
.LBI58:
	.loc 1 274 13 view .LVU293
.LBB59:
	.loc 1 276 3 view .LVU294
	.loc 1 279 3 view .LVU295
	.loc 1 279 18 is_stmt 0 view .LVU296
	movzbl	1(%rbx), %eax
.LVL106:
	.loc 1 280 3 is_stmt 1 view .LVU297
	.loc 1 280 18 is_stmt 0 view .LVU298
	movzbl	5(%rbx), %edx
	movb	%dl, 1(%rbx)
	.loc 1 281 3 is_stmt 1 view .LVU299
	.loc 1 281 18 is_stmt 0 view .LVU300
	movzbl	9(%rbx), %edx
	movb	%dl, 5(%rbx)
	.loc 1 282 3 is_stmt 1 view .LVU301
	.loc 1 282 18 is_stmt 0 view .LVU302
	movzbl	13(%rbx), %edx
	movb	%dl, 9(%rbx)
	.loc 1 283 3 is_stmt 1 view .LVU303
	.loc 1 283 18 is_stmt 0 view .LVU304
	movb	%al, 13(%rbx)
	.loc 1 286 3 is_stmt 1 view .LVU305
	.loc 1 286 18 is_stmt 0 view .LVU306
	movzbl	2(%rbx), %eax
.LVL107:
	.loc 1 287 3 is_stmt 1 view .LVU307
	.loc 1 287 18 is_stmt 0 view .LVU308
	movzbl	10(%rbx), %edx
	movb	%dl, 2(%rbx)
	.loc 1 288 3 is_stmt 1 view .LVU309
	.loc 1 288 18 is_stmt 0 view .LVU310
	movb	%al, 10(%rbx)
	.loc 1 290 3 is_stmt 1 view .LVU311
	.loc 1 290 18 is_stmt 0 view .LVU312
	movzbl	6(%rbx), %eax
.LVL108:
	.loc 1 291 3 is_stmt 1 view .LVU313
	.loc 1 291 18 is_stmt 0 view .LVU314
	movzbl	14(%rbx), %edx
	movb	%dl, 6(%rbx)
	.loc 1 292 3 is_stmt 1 view .LVU315
	.loc 1 292 18 is_stmt 0 view .LVU316
	movb	%al, 14(%rbx)
	.loc 1 295 3 is_stmt 1 view .LVU317
	.loc 1 295 18 is_stmt 0 view .LVU318
	movzbl	3(%rbx), %eax
.LVL109:
	.loc 1 296 3 is_stmt 1 view .LVU319
	.loc 1 296 18 is_stmt 0 view .LVU320
	movzbl	15(%rbx), %edx
	movb	%dl, 3(%rbx)
	.loc 1 297 3 is_stmt 1 view .LVU321
	.loc 1 297 18 is_stmt 0 view .LVU322
	movzbl	11(%rbx), %edx
	movb	%dl, 15(%rbx)
	.loc 1 298 3 is_stmt 1 view .LVU323
	.loc 1 298 18 is_stmt 0 view .LVU324
	movzbl	7(%rbx), %edx
	movb	%dl, 11(%rbx)
	.loc 1 299 3 is_stmt 1 view .LVU325
	.loc 1 299 18 is_stmt 0 view .LVU326
	movb	%al, 7(%rbx)
.LVL110:
	.loc 1 299 18 view .LVU327
.LBE59:
.LBE58:
.LBB61:
.LBB62:
	.loc 1 312 15 is_stmt 1 view .LVU328
	leaq	16(%rbx), %r15
.LBE62:
.LBE61:
.LBB64:
.LBB60:
	.loc 1 299 18 is_stmt 0 view .LVU329
	movq	%rbx, %rbp
.LVL111:
.L38:
	.loc 1 299 18 view .LVU330
.LBE60:
.LBE64:
.LBB65:
.LBB63:
	.loc 1 314 5 is_stmt 1 view .LVU331
	.loc 1 314 9 is_stmt 0 view .LVU332
	movzbl	0(%rbp), %r13d
.LVL112:
	.loc 1 315 5 is_stmt 1 view .LVU333
	.loc 1 315 39 is_stmt 0 view .LVU334
	movzbl	1(%rbp), %edi
	.loc 1 315 9 view .LVU335
	movb	%dil, 1(%rsp)
	xorl	%r13d, %edi
	.loc 1 315 56 view .LVU336
	movzbl	2(%rbp), %eax
	.loc 1 315 73 view .LVU337
	movzbl	3(%rbp), %r12d
	movb	%al, 2(%rsp)
	movl	%eax, %ecx
	xorl	%r12d, %ecx
	movl	%ecx, %r14d
	.loc 1 315 9 view .LVU338
	movb	%cl, 3(%rsp)
	xorl	%edi, %r14d
.LVL113:
	.loc 1 316 5 is_stmt 1 view .LVU339
	.loc 1 316 45 view .LVU340
	.loc 1 316 50 is_stmt 0 view .LVU341
	movzbl	%dil, %edi
	.loc 1 316 50 view .LVU342
	call	xtime
.LVL114:
	.loc 1 316 62 is_stmt 1 view .LVU343
	.loc 1 316 77 is_stmt 0 view .LVU344
	xorl	%r13d, %eax
.LVL115:
	.loc 1 316 77 view .LVU345
	xorl	%r14d, %eax
	movb	%al, 0(%rbp)
	.loc 1 317 5 is_stmt 1 view .LVU346
.LVL116:
	.loc 1 317 45 view .LVU347
	.loc 1 317 9 is_stmt 0 view .LVU348
	movzbl	1(%rsp), %edi
	xorb	2(%rsp), %dil
.LVL117:
	.loc 1 317 50 view .LVU349
	movzbl	%dil, %edi
	.loc 1 317 50 view .LVU350
	call	xtime
.LVL118:
	.loc 1 317 62 is_stmt 1 view .LVU351
	.loc 1 317 77 is_stmt 0 view .LVU352
	xorb	1(%rsp), %al
.LVL119:
	.loc 1 317 77 view .LVU353
	xorl	%r14d, %eax
	movb	%al, 1(%rbp)
	.loc 1 318 5 is_stmt 1 view .LVU354
.LVL120:
	.loc 1 318 45 view .LVU355
	.loc 1 318 50 is_stmt 0 view .LVU356
	movzbl	3(%rsp), %edi
	call	xtime
.LVL121:
	.loc 1 318 62 is_stmt 1 view .LVU357
	.loc 1 318 77 is_stmt 0 view .LVU358
	xorb	2(%rsp), %al
.LVL122:
	.loc 1 318 77 view .LVU359
	xorl	%r14d, %eax
	movb	%al, 2(%rbp)
	.loc 1 319 5 is_stmt 1 view .LVU360
.LVL123:
	.loc 1 319 45 view .LVU361
	.loc 1 319 9 is_stmt 0 view .LVU362
	xorl	%r12d, %r13d
.LVL124:
	.loc 1 319 50 view .LVU363
	movzbl	%r13b, %edi
	call	xtime
.LVL125:
	.loc 1 319 62 is_stmt 1 view .LVU364
	.loc 1 319 77 is_stmt 0 view .LVU365
	xorl	%eax, %r12d
	xorl	%r12d, %r14d
.LVL126:
	.loc 1 319 77 view .LVU366
	movb	%r14b, 3(%rbp)
	.loc 1 312 22 is_stmt 1 view .LVU367
	.loc 1 312 15 view .LVU368
	addq	$4, %rbp
	.loc 1 312 3 is_stmt 0 view .LVU369
	cmpq	%r15, %rbp
	jne	.L38
	jmp	.L49
.LVL127:
.L48:
	.loc 1 312 3 view .LVU370
	movq	16(%rsp), %rcx
	addq	$20, %rcx
.LBE63:
.LBE65:
.LBB66:
.LBB67:
	.loc 1 266 24 view .LVU371
	leaq	sbox(%rip), %rsi
.L39:
.LVL128:
	.loc 1 264 17 is_stmt 1 view .LVU372
	leaq	-16(%r15), %rax
.LVL129:
.L41:
	.loc 1 266 7 view .LVU373
	.loc 1 266 24 is_stmt 0 view .LVU374
	movzbl	(%rax), %edx
	.loc 1 266 22 view .LVU375
	movzbl	(%rsi,%rdx), %edx
	movb	%dl, (%rax)
	.loc 1 264 24 is_stmt 1 view .LVU376
	.loc 1 264 17 view .LVU377
	addq	$4, %rax
	.loc 1 264 5 is_stmt 0 view .LVU378
	cmpq	%r15, %rax
	jne	.L41
	.loc 1 262 22 is_stmt 1 view .LVU379
.LVL130:
	.loc 1 262 15 view .LVU380
	incq	%r15
.LVL131:
	.loc 1 262 3 is_stmt 0 view .LVU381
	cmpq	%r15, %rcx
	jne	.L39
	.loc 1 262 3 view .LVU382
.LBE67:
.LBE66:
	.loc 1 438 3 is_stmt 1 view .LVU383
.LVL132:
.LBB68:
.LBI68:
	.loc 1 274 13 view .LVU384
.LBB69:
	.loc 1 276 3 view .LVU385
	.loc 1 279 3 view .LVU386
	.loc 1 279 18 is_stmt 0 view .LVU387
	movzbl	1(%rbx), %eax
.LVL133:
	.loc 1 280 3 is_stmt 1 view .LVU388
	.loc 1 280 18 is_stmt 0 view .LVU389
	movzbl	5(%rbx), %edx
	movb	%dl, 1(%rbx)
	.loc 1 281 3 is_stmt 1 view .LVU390
	.loc 1 281 18 is_stmt 0 view .LVU391
	movzbl	9(%rbx), %edx
	movb	%dl, 5(%rbx)
	.loc 1 282 3 is_stmt 1 view .LVU392
	.loc 1 282 18 is_stmt 0 view .LVU393
	movzbl	13(%rbx), %edx
	movb	%dl, 9(%rbx)
	.loc 1 283 3 is_stmt 1 view .LVU394
	.loc 1 283 18 is_stmt 0 view .LVU395
	movb	%al, 13(%rbx)
	.loc 1 286 3 is_stmt 1 view .LVU396
	.loc 1 286 18 is_stmt 0 view .LVU397
	movzbl	2(%rbx), %eax
.LVL134:
	.loc 1 287 3 is_stmt 1 view .LVU398
	.loc 1 287 18 is_stmt 0 view .LVU399
	movzbl	10(%rbx), %edx
	movb	%dl, 2(%rbx)
	.loc 1 288 3 is_stmt 1 view .LVU400
	.loc 1 288 18 is_stmt 0 view .LVU401
	movb	%al, 10(%rbx)
	.loc 1 290 3 is_stmt 1 view .LVU402
	.loc 1 290 18 is_stmt 0 view .LVU403
	movzbl	6(%rbx), %eax
.LVL135:
	.loc 1 291 3 is_stmt 1 view .LVU404
	.loc 1 291 18 is_stmt 0 view .LVU405
	movzbl	14(%rbx), %edx
	movb	%dl, 6(%rbx)
	.loc 1 292 3 is_stmt 1 view .LVU406
	.loc 1 292 18 is_stmt 0 view .LVU407
	movb	%al, 14(%rbx)
	.loc 1 295 3 is_stmt 1 view .LVU408
	.loc 1 295 18 is_stmt 0 view .LVU409
	movzbl	3(%rbx), %eax
.LVL136:
	.loc 1 296 3 is_stmt 1 view .LVU410
	.loc 1 296 18 is_stmt 0 view .LVU411
	movzbl	15(%rbx), %edx
	movb	%dl, 3(%rbx)
	.loc 1 297 3 is_stmt 1 view .LVU412
	.loc 1 297 18 is_stmt 0 view .LVU413
	movzbl	11(%rbx), %edx
	movb	%dl, 15(%rbx)
	.loc 1 298 3 is_stmt 1 view .LVU414
	.loc 1 298 18 is_stmt 0 view .LVU415
	movzbl	7(%rbx), %edx
	movb	%dl, 11(%rbx)
	.loc 1 299 3 is_stmt 1 view .LVU416
	.loc 1 299 18 is_stmt 0 view .LVU417
	movb	%al, 7(%rbx)
.LVL137:
	.loc 1 299 18 view .LVU418
.LBE69:
.LBE68:
	.loc 1 439 3 is_stmt 1 view .LVU419
	movq	8(%rsp), %rdx
	movq	%rbx, %rsi
	movl	$14, %edi
	call	AddRoundKey
.LVL138:
	.loc 1 440 1 is_stmt 0 view .LVU420
	addq	$24, %rsp
	.cfi_def_cfa_offset 56
	popq	%rbx
	.cfi_def_cfa_offset 48
.LVL139:
	.loc 1 440 1 view .LVU421
	popq	%rbp
	.cfi_def_cfa_offset 40
	popq	%r12
	.cfi_def_cfa_offset 32
	popq	%r13
	.cfi_def_cfa_offset 24
	popq	%r14
	.cfi_def_cfa_offset 16
.LVL140:
	.loc 1 440 1 view .LVU422
	popq	%r15
	.cfi_def_cfa_offset 8
	ret
	.cfi_endproc
.LFE23:
	.size	Cipher, .-Cipher
	.globl	AES_init_ctx
	.type	AES_init_ctx, @function
AES_init_ctx:
.LVL141:
.LFB12:
	.loc 1 228 1 is_stmt 1 view -0
	.cfi_startproc
	.loc 1 228 1 is_stmt 0 view .LVU424
	endbr64
	.loc 1 229 3 is_stmt 1 view .LVU425
	call	KeyExpansion
.LVL142:
	.loc 1 230 1 is_stmt 0 view .LVU426
	ret
	.cfi_endproc
.LFE12:
	.size	AES_init_ctx, .-AES_init_ctx
	.globl	AES_init_ctx_iv
	.type	AES_init_ctx_iv, @function
AES_init_ctx_iv:
.LVL143:
.LFB13:
	.loc 1 233 1 is_stmt 1 view -0
	.cfi_startproc
	.loc 1 233 1 is_stmt 0 view .LVU428
	endbr64
	pushq	%rbp
	.cfi_def_cfa_offset 16
	.cfi_offset 6, -16
	pushq	%rbx
	.cfi_def_cfa_offset 24
	.cfi_offset 3, -24
	subq	$8, %rsp
	.cfi_def_cfa_offset 32
	movq	%rdi, %rbx
	movq	%rdx, %rbp
	.loc 1 234 3 is_stmt 1 view .LVU429
	call	KeyExpansion
.LVL144:
	.loc 1 235 3 view .LVU430
.LBB70:
.LBI70:
	.file 2 "/usr/include/x86_64-linux-gnu/bits/string_fortified.h"
	.loc 2 31 1 view .LVU431
.LBB71:
	.loc 2 34 3 view .LVU432
	vmovdqu	0(%rbp), %xmm0
	vmovups	%xmm0, 240(%rbx)
.LVL145:
	.loc 2 34 3 is_stmt 0 view .LVU433
.LBE71:
.LBE70:
	.loc 1 236 1 view .LVU434
	addq	$8, %rsp
	.cfi_def_cfa_offset 24
	popq	%rbx
	.cfi_def_cfa_offset 16
.LVL146:
	.loc 1 236 1 view .LVU435
	popq	%rbp
	.cfi_def_cfa_offset 8
.LVL147:
	.loc 1 236 1 view .LVU436
	ret
	.cfi_endproc
.LFE13:
	.size	AES_init_ctx_iv, .-AES_init_ctx_iv
	.globl	AES_ctx_set_iv
	.type	AES_ctx_set_iv, @function
AES_ctx_set_iv:
.LVL148:
.LFB14:
	.loc 1 238 1 is_stmt 1 view -0
	.cfi_startproc
	.loc 1 238 1 is_stmt 0 view .LVU438
	endbr64
	.loc 1 239 3 is_stmt 1 view .LVU439
.LVL149:
.LBB72:
.LBI72:
	.loc 2 31 1 view .LVU440
.LBB73:
	.loc 2 34 3 view .LVU441
	vmovdqu	(%rsi), %xmm0
	vmovups	%xmm0, 240(%rdi)
.LVL150:
	.loc 2 34 3 is_stmt 0 view .LVU442
.LBE73:
.LBE72:
	.loc 1 240 1 view .LVU443
	ret
	.cfi_endproc
.LFE14:
	.size	AES_ctx_set_iv, .-AES_ctx_set_iv
	.globl	AES_ECB_encrypt
	.type	AES_ECB_encrypt, @function
AES_ECB_encrypt:
.LVL151:
.LFB25:
	.loc 1 476 1 is_stmt 1 view -0
	.cfi_startproc
	.loc 1 476 1 is_stmt 0 view .LVU445
	endbr64
	movq	%rdi, %rax
	movq	%rsi, %rdi
.LVL152:
	.loc 1 479 3 is_stmt 1 view .LVU446
	movq	%rax, %rsi
.LVL153:
	.loc 1 479 3 is_stmt 0 view .LVU447
	call	Cipher
.LVL154:
	.loc 1 480 1 view .LVU448
	ret
	.cfi_endproc
.LFE25:
	.size	AES_ECB_encrypt, .-AES_ECB_encrypt
	.globl	AES_ECB_decrypt
	.type	AES_ECB_decrypt, @function
AES_ECB_decrypt:
.LVL155:
.LFB26:
	.loc 1 483 1 is_stmt 1 view -0
	.cfi_startproc
	.loc 1 483 1 is_stmt 0 view .LVU450
	endbr64
	movq	%rdi, %rax
	movq	%rsi, %rdi
.LVL156:
	.loc 1 485 3 is_stmt 1 view .LVU451
	movq	%rax, %rsi
.LVL157:
	.loc 1 485 3 is_stmt 0 view .LVU452
	call	InvCipher
.LVL158:
	.loc 1 486 1 view .LVU453
	ret
	.cfi_endproc
.LFE26:
	.size	AES_ECB_decrypt, .-AES_ECB_decrypt
	.globl	AES_CBC_encrypt_buffer
	.type	AES_CBC_encrypt_buffer, @function
AES_CBC_encrypt_buffer:
.LVL159:
.LFB28:
	.loc 1 508 1 is_stmt 1 view -0
	.cfi_startproc
	.loc 1 508 1 is_stmt 0 view .LVU455
	endbr64
	pushq	%r14
	.cfi_def_cfa_offset 16
	.cfi_offset 14, -16
	pushq	%r13
	.cfi_def_cfa_offset 24
	.cfi_offset 13, -24
	pushq	%r12
	.cfi_def_cfa_offset 32
	.cfi_offset 12, -32
	pushq	%rbp
	.cfi_def_cfa_offset 40
	.cfi_offset 6, -40
	pushq	%rbx
	.cfi_def_cfa_offset 48
	.cfi_offset 3, -48
	movq	%rdi, %rbp
	.loc 1 509 3 is_stmt 1 view .LVU456
	.loc 1 510 3 view .LVU457
	.loc 1 510 12 is_stmt 0 view .LVU458
	leaq	240(%rdi), %rcx
.LVL160:
	.loc 1 511 3 is_stmt 1 view .LVU459
	.loc 1 511 15 view .LVU460
	.loc 1 511 17 is_stmt 0 view .LVU461
	movl	%edx, %r12d
	.loc 1 511 3 view .LVU462
	testq	%r12, %r12
	je	.L57
	movq	%rsi, %r14
	decq	%r12
	movq	%r12, %rax
	andq	$-16, %rax
	leaq	16(%rsi,%rax), %r13
	movq	%rsi, %rbx
.LVL161:
.L58:
.LBB78:
.LBB79:
	.loc 1 501 15 is_stmt 1 view .LVU463
.LBE79:
.LBE78:
	.loc 1 508 1 is_stmt 0 view .LVU464
	movl	$0, %eax
.LVL162:
.L59:
.LBB81:
.LBB80:
	.loc 1 503 5 is_stmt 1 view .LVU465
	.loc 1 503 12 is_stmt 0 view .LVU466
	movzbl	(%rcx,%rax), %edx
	xorb	%dl, (%rbx,%rax)
	.loc 1 501 33 is_stmt 1 view .LVU467
.LVL163:
	.loc 1 501 15 view .LVU468
	incq	%rax
.LVL164:
	.loc 1 501 3 is_stmt 0 view .LVU469
	cmpq	$16, %rax
	jne	.L59
	.loc 1 501 3 view .LVU470
.LBE80:
.LBE81:
	.loc 1 514 5 is_stmt 1 discriminator 3 view .LVU471
	movq	%rbp, %rsi
	movq	%rbx, %rdi
	call	Cipher
.LVL165:
	.loc 1 515 5 discriminator 3 view .LVU472
	.loc 1 516 5 discriminator 3 view .LVU473
	.loc 1 516 9 is_stmt 0 discriminator 3 view .LVU474
	leaq	16(%rbx), %rax
.LVL166:
	.loc 1 511 27 is_stmt 1 discriminator 3 view .LVU475
	.loc 1 511 15 discriminator 3 view .LVU476
	movq	%rbx, %rcx
	.loc 1 511 3 is_stmt 0 discriminator 3 view .LVU477
	cmpq	%r13, %rax
	je	.L63
.LVL167:
	.loc 1 516 9 view .LVU478
	movq	%rax, %rbx
	jmp	.L58
.L63:
	.loc 1 516 9 view .LVU479
	andq	$-16, %r12
.LVL168:
	.loc 1 516 9 view .LVU480
	leaq	(%r14,%r12), %rcx
.LVL169:
.L57:
	.loc 1 520 3 is_stmt 1 view .LVU481
.LBB82:
.LBI82:
	.loc 2 31 1 view .LVU482
.LBB83:
	.loc 2 34 3 view .LVU483
	vmovdqu	(%rcx), %xmm0
	vmovups	%xmm0, 240(%rbp)
.LVL170:
	.loc 2 34 3 is_stmt 0 view .LVU484
.LBE83:
.LBE82:
	.loc 1 521 1 view .LVU485
	popq	%rbx
	.cfi_def_cfa_offset 40
	popq	%rbp
	.cfi_def_cfa_offset 32
.LVL171:
	.loc 1 521 1 view .LVU486
	popq	%r12
	.cfi_def_cfa_offset 24
	popq	%r13
	.cfi_def_cfa_offset 16
	popq	%r14
	.cfi_def_cfa_offset 8
	ret
	.cfi_endproc
.LFE28:
	.size	AES_CBC_encrypt_buffer, .-AES_CBC_encrypt_buffer
	.globl	AES_CBC_decrypt_buffer
	.type	AES_CBC_decrypt_buffer, @function
AES_CBC_decrypt_buffer:
.LVL172:
.LFB29:
	.loc 1 524 1 is_stmt 1 view -0
	.cfi_startproc
	.loc 1 524 1 is_stmt 0 view .LVU488
	endbr64
	.loc 1 525 3 is_stmt 1 view .LVU489
	.loc 1 526 3 view .LVU490
	.loc 1 527 3 view .LVU491
.LVL173:
	.loc 1 527 15 view .LVU492
	.loc 1 527 17 is_stmt 0 view .LVU493
	movl	%edx, %edx
	.loc 1 527 3 view .LVU494
	testq	%rdx, %rdx
	je	.L71
	.loc 1 524 1 view .LVU495
	pushq	%r14
	.cfi_def_cfa_offset 16
	.cfi_offset 14, -16
	pushq	%r13
	.cfi_def_cfa_offset 24
	.cfi_offset 13, -24
	pushq	%r12
	.cfi_def_cfa_offset 32
	.cfi_offset 12, -32
	pushq	%rbp
	.cfi_def_cfa_offset 40
	.cfi_offset 6, -40
	pushq	%rbx
	.cfi_def_cfa_offset 48
	.cfi_offset 3, -48
	movq	%rdi, %rbp
	movq	%rsi, %rbx
	decq	%rdx
.LVL174:
	.loc 1 524 1 view .LVU496
	andq	$-16, %rdx
.LVL175:
	.loc 1 524 1 view .LVU497
	leaq	16(%rsi,%rdx), %r14
.LVL176:
.L67:
	.loc 1 529 5 is_stmt 1 view .LVU498
	.loc 2 34 3 view .LVU499
	movq	(%rbx), %r12
	movq	8(%rbx), %r13
.LVL177:
	.loc 1 530 5 view .LVU500
	movq	%rbp, %rsi
	movq	%rbx, %rdi
	call	InvCipher
.LVL178:
	.loc 1 531 5 view .LVU501
.LBB88:
.LBI88:
	.loc 1 498 13 view .LVU502
.LBB89:
	.loc 1 500 3 view .LVU503
	.loc 1 501 3 view .LVU504
	.loc 1 501 15 view .LVU505
.LBE89:
.LBE88:
	.loc 1 530 5 is_stmt 0 view .LVU506
	movl	$0, %eax
.LVL179:
.L66:
.LBB91:
.LBB90:
	.loc 1 503 5 is_stmt 1 view .LVU507
	.loc 1 503 12 is_stmt 0 view .LVU508
	movzbl	240(%rbp,%rax), %edx
	xorb	%dl, (%rbx,%rax)
	.loc 1 501 33 is_stmt 1 view .LVU509
.LVL180:
	.loc 1 501 15 view .LVU510
	incq	%rax
.LVL181:
	.loc 1 501 3 is_stmt 0 view .LVU511
	cmpq	$16, %rax
	jne	.L66
.LVL182:
	.loc 1 501 3 view .LVU512
.LBE90:
.LBE91:
	.loc 1 532 5 is_stmt 1 view .LVU513
.LBB92:
.LBI92:
	.loc 2 31 1 view .LVU514
.LBB93:
	.loc 2 34 3 view .LVU515
	.loc 2 34 10 is_stmt 0 view .LVU516
	movq	%r12, 240(%rbp)
	movq	%r13, 248(%rbp)
.LVL183:
	.loc 2 34 10 view .LVU517
.LBE93:
.LBE92:
	.loc 1 533 5 is_stmt 1 view .LVU518
	.loc 1 533 9 is_stmt 0 view .LVU519
	addq	$16, %rbx
.LVL184:
	.loc 1 527 27 is_stmt 1 view .LVU520
	.loc 1 527 15 view .LVU521
	.loc 1 527 3 is_stmt 0 view .LVU522
	cmpq	%r14, %rbx
	jne	.L67
	.loc 1 536 1 view .LVU523
	popq	%rbx
	.cfi_def_cfa_offset 40
.LVL185:
	.loc 1 536 1 view .LVU524
	popq	%rbp
	.cfi_def_cfa_offset 32
.LVL186:
	.loc 1 536 1 view .LVU525
	popq	%r12
	.cfi_def_cfa_offset 24
.LVL187:
	.loc 1 536 1 view .LVU526
	popq	%r13
	.cfi_def_cfa_offset 16
	popq	%r14
	.cfi_def_cfa_offset 8
	ret
.LVL188:
.L71:
	.cfi_restore 3
	.cfi_restore 6
	.cfi_restore 12
	.cfi_restore 13
	.cfi_restore 14
	.loc 1 536 1 view .LVU527
	ret
	.cfi_endproc
.LFE29:
	.size	AES_CBC_decrypt_buffer, .-AES_CBC_decrypt_buffer
	.globl	AES_CTR_xcrypt_buffer
	.type	AES_CTR_xcrypt_buffer, @function
AES_CTR_xcrypt_buffer:
.LVL189:
.LFB30:
	.loc 1 546 1 is_stmt 1 view -0
	.cfi_startproc
	.loc 1 546 1 is_stmt 0 view .LVU529
	endbr64
	pushq	%r13
	.cfi_def_cfa_offset 16
	.cfi_offset 13, -16
	pushq	%r12
	.cfi_def_cfa_offset 24
	.cfi_offset 12, -24
	pushq	%rbp
	.cfi_def_cfa_offset 32
	.cfi_offset 6, -32
	pushq	%rbx
	.cfi_def_cfa_offset 40
	.cfi_offset 3, -40
	subq	$40, %rsp
	.cfi_def_cfa_offset 80
	.loc 1 546 1 view .LVU530
	movq	%fs:40, %rax
	movq	%rax, 24(%rsp)
	xorl	%eax, %eax
	.loc 1 547 3 is_stmt 1 view .LVU531
	.loc 1 549 3 view .LVU532
	.loc 1 550 3 view .LVU533
	.loc 1 551 3 view .LVU534
.LVL190:
	.loc 1 551 34 view .LVU535
	.loc 1 551 3 is_stmt 0 view .LVU536
	testl	%edx, %edx
	je	.L74
	movq	%rdi, %r12
	movq	%rsi, %rbx
	leal	-1(%rdx), %eax
	leaq	1(%rsi,%rax), %rbp
	.loc 1 551 18 view .LVU537
	movl	$16, %eax
	.loc 1 557 7 view .LVU538
	movq	%rsp, %r13
.LVL191:
.L79:
	.loc 1 553 5 is_stmt 1 view .LVU539
	.loc 1 553 8 is_stmt 0 view .LVU540
	cmpl	$16, %eax
	je	.L84
.LVL192:
.L76:
	.loc 1 574 5 is_stmt 1 discriminator 2 view .LVU541
	.loc 1 574 30 is_stmt 0 discriminator 2 view .LVU542
	movslq	%eax, %rdx
	.loc 1 574 12 discriminator 2 view .LVU543
	movzbl	(%rsp,%rdx), %edx
	xorb	%dl, (%rbx)
	.loc 1 551 46 is_stmt 1 discriminator 2 view .LVU544
.LVL193:
	.loc 1 551 51 is_stmt 0 discriminator 2 view .LVU545
	incl	%eax
.LVL194:
	.loc 1 551 34 is_stmt 1 discriminator 2 view .LVU546
	incq	%rbx
.LVL195:
	.loc 1 551 3 is_stmt 0 discriminator 2 view .LVU547
	cmpq	%rbp, %rbx
	jne	.L79
.LVL196:
.L74:
	.loc 1 576 1 view .LVU548
	movq	24(%rsp), %rax
	xorq	%fs:40, %rax
	jne	.L85
	addq	$40, %rsp
	.cfi_remember_state
	.cfi_def_cfa_offset 40
	popq	%rbx
	.cfi_def_cfa_offset 32
	popq	%rbp
	.cfi_def_cfa_offset 24
	popq	%r12
	.cfi_def_cfa_offset 16
	popq	%r13
	.cfi_def_cfa_offset 8
	ret
.LVL197:
.L84:
	.cfi_restore_state
	.loc 1 556 7 is_stmt 1 view .LVU549
	.loc 2 34 3 view .LVU550
	vmovdqu	240(%r12), %xmm0
	vmovaps	%xmm0, (%rsp)
.LVL198:
	.loc 1 557 7 view .LVU551
	movq	%r12, %rsi
	movq	%r13, %rdi
	call	Cipher
.LVL199:
	.loc 1 560 7 view .LVU552
	.loc 1 560 37 view .LVU553
	.loc 1 557 7 is_stmt 0 view .LVU554
	movl	$15, %edx
.LVL200:
.L78:
	.loc 1 563 9 is_stmt 1 view .LVU555
	.loc 1 563 20 is_stmt 0 view .LVU556
	movzbl	240(%r12,%rdx), %eax
	.loc 1 563 12 view .LVU557
	cmpb	$-1, %al
	je	.L86
	.loc 1 568 9 is_stmt 1 view .LVU558
	.loc 1 568 21 is_stmt 0 view .LVU559
	movslq	%edx, %rcx
	incl	%eax
	movb	%al, 240(%r12,%rcx)
	.loc 1 569 9 is_stmt 1 view .LVU560
	.loc 1 571 10 is_stmt 0 view .LVU561
	movl	$0, %eax
	.loc 1 569 9 view .LVU562
	jmp	.L76
.L86:
	.loc 1 565 11 is_stmt 1 view .LVU563
	.loc 1 565 23 is_stmt 0 view .LVU564
	movb	$0, 240(%r12,%rdx)
	.loc 1 566 11 is_stmt 1 view .LVU565
	.loc 1 560 46 view .LVU566
.LVL201:
	.loc 1 560 37 view .LVU567
	decq	%rdx
.LVL202:
	.loc 1 560 7 is_stmt 0 view .LVU568
	cmpq	$-1, %rdx
	jne	.L78
	.loc 1 571 10 view .LVU569
	movl	$0, %eax
	jmp	.L76
.LVL203:
.L85:
	.loc 1 576 1 view .LVU570
	call	__stack_chk_fail@PLT
.LVL204:
	.cfi_endproc
.LFE30:
	.size	AES_CTR_xcrypt_buffer, .-AES_CTR_xcrypt_buffer
	.section	.rodata
	.align 8
	.type	Rcon, @object
	.size	Rcon, 11
Rcon:
	.ascii	"\215\001\002\004\b\020 @\200\0336"
	.align 32
	.type	rsbox, @object
	.size	rsbox, 256
rsbox:
	.string	"R\tj\32506\2458\277@\243\236\201\363\327\373|\3439\202\233/\377\2074\216CD\304\336\351\313T{\2242\246\302#=\356L\225\013B\372\303N\b.\241f(\331$\262v[\242Im\213\321%r\370\366d\206h\230\026\324\244\\\314]e\266\222lpHP\375\355\271\332^\025FW\247\215\235\204\220\330\253"
	.ascii	"\214\274\323\n\367\344X\005\270\263E\006\320,\036\217\312?\017"
	.ascii	"\002\301\257\275\003\001\023\212k:\221\021AOg\334\352\227\362"
	.ascii	"\317\316\360\264\346s\226\254t\"\347\2555\205\342\3717\350\034"
	.ascii	"u\337nG\361\032q\035)\305\211o\267b\016\252\030\276\033\374V"
	.ascii	">K\306\322y \232\333\300\376x\315Z\364\037\335\2503\210\007\307"
	.ascii	"1\261\022\020Y'\200\354_`Q\177\251\031\265J\r-\345z\237\223\311"
	.ascii	"\234\357\240\340;M\256*\365\260\310\353\273<\203S\231a\027+\004"
	.ascii	"~\272w\326&\341i\024cU!\f}"
	.align 32
	.type	sbox, @object
	.size	sbox, 256
sbox:
	.string	"c|w{\362ko\3050\001g+\376\327\253v\312\202\311}\372YG\360\255\324\242\257\234\244r\300\267\375\223&6?\367\3144\245\345\361q\3301\025\004\307#\303\030\226\005\232\007\022\200\342\353'\262u\t\203,\032\033nZ\240R;\326\263)\343/\204S\321"
	.ascii	"\355 \374\261[j\313\2769JLX\317\320\357\252\373CM3\205E\371\002"
	.ascii	"\177P<\237\250Q\243@\217\222\2358\365\274\266\332!\020\377\363"
	.ascii	"\322\315\f\023\354_\227D\027\304\247~=d]\031s`\201O\334\"*\220"
	.ascii	"\210F\356\270\024\336^\013\333\3402:\nI\006$\\\302\323\254b\221"
	.ascii	"\225\344y\347\3107m\215\325N\251lV\364\352ez\256\b\272x%.\034"
	.ascii	"\246\264\306\350\335t\037K\275\213\212p>\265fH\003\366\016a5"
	.ascii	"W\271\206\301\035\236\341\370\230\021i\331\216\224\233\036\207"
	.ascii	"\351\316U(\337\214\241\211\r\277\346BhA\231-\017\260T\273\026"
	.text
.Letext0:
	.file 3 "/usr/include/x86_64-linux-gnu/bits/types.h"
	.file 4 "/usr/include/x86_64-linux-gnu/bits/stdint-uintn.h"
	.file 5 "/usr/include/stdint.h"
	.file 6 "/usr/lib/gcc/x86_64-linux-gnu/9/include/stddef.h"
	.file 7 "aes.h"
	.section	.note.GNU-stack,"",@progbits
	.section	.note.gnu.property,"a"
	.align 8
	.long	 1f - 0f
	.long	 4f - 1f
	.long	 5
0:
	.string	 "GNU"
1:
	.align 8
	.long	 0xc0000002
	.long	 3f - 2f
2:
	.long	 0x3
3:
	.align 8
4:
