	.file	"packing.c"
	.text
.Ltext0:
	.globl	pack_pk
	.type	pack_pk, @function
pack_pk:
.LVL0:
.LFB0:
	.file 1 "packing.c"
	.loc 1 18 1 view -0
	.cfi_startproc
	.loc 1 18 1 is_stmt 0 view .LVU1
	endbr64
	pushq	%r12
	.cfi_def_cfa_offset 16
	.cfi_offset 12, -16
	pushq	%rbp
	.cfi_def_cfa_offset 24
	.cfi_offset 6, -24
	pushq	%rbx
	.cfi_def_cfa_offset 32
	.cfi_offset 3, -32
	.loc 1 19 3 is_stmt 1 view .LVU2
	.loc 1 21 3 view .LVU3
.LVL1:
	.loc 1 21 14 view .LVU4
	.loc 1 18 1 is_stmt 0 view .LVU5
	movl	$0, %eax
.LVL2:
.L2:
	.loc 1 22 5 is_stmt 1 discriminator 3 view .LVU6
	.loc 1 22 16 is_stmt 0 discriminator 3 view .LVU7
	movzbl	(%rsi,%rax), %ecx
	.loc 1 22 11 discriminator 3 view .LVU8
	movb	%cl, (%rdi,%rax)
	.loc 1 21 29 is_stmt 1 discriminator 3 view .LVU9
.LVL3:
	.loc 1 21 14 discriminator 3 view .LVU10
	incq	%rax
.LVL4:
	.loc 1 21 3 is_stmt 0 discriminator 3 view .LVU11
	cmpq	$32, %rax
	jne	.L2
	leaq	32(%rdi), %rbp
	movq	%rdx, %r12
	leaq	1184(%rdi), %rbx
.LVL5:
.L3:
	.loc 1 26 5 is_stmt 1 discriminator 3 view .LVU12
	movq	%r12, %rsi
	movq	%rbp, %rdi
	call	polyt1_pack@PLT
.LVL6:
	.loc 1 25 21 discriminator 3 view .LVU13
	.loc 1 25 14 discriminator 3 view .LVU14
	addq	$288, %rbp
	addq	$1024, %r12
	.loc 1 25 3 is_stmt 0 discriminator 3 view .LVU15
	cmpq	%rbx, %rbp
	jne	.L3
	.loc 1 27 1 view .LVU16
	popq	%rbx
	.cfi_def_cfa_offset 24
	popq	%rbp
	.cfi_def_cfa_offset 16
	popq	%r12
	.cfi_def_cfa_offset 8
	ret
	.cfi_endproc
.LFE0:
	.size	pack_pk, .-pack_pk
	.globl	unpack_pk
	.type	unpack_pk, @function
unpack_pk:
.LVL7:
.LFB1:
	.loc 1 41 1 is_stmt 1 view -0
	.cfi_startproc
	.loc 1 41 1 is_stmt 0 view .LVU18
	endbr64
	pushq	%r12
	.cfi_def_cfa_offset 16
	.cfi_offset 12, -16
	pushq	%rbp
	.cfi_def_cfa_offset 24
	.cfi_offset 6, -24
	pushq	%rbx
	.cfi_def_cfa_offset 32
	.cfi_offset 3, -32
	.loc 1 42 3 is_stmt 1 view .LVU19
	.loc 1 44 3 view .LVU20
.LVL8:
	.loc 1 44 14 view .LVU21
	.loc 1 41 1 is_stmt 0 view .LVU22
	movl	$0, %eax
.LVL9:
.L8:
	.loc 1 45 5 is_stmt 1 discriminator 3 view .LVU23
	.loc 1 45 16 is_stmt 0 discriminator 3 view .LVU24
	movzbl	(%rdx,%rax), %ecx
	.loc 1 45 12 discriminator 3 view .LVU25
	movb	%cl, (%rdi,%rax)
	.loc 1 44 29 is_stmt 1 discriminator 3 view .LVU26
.LVL10:
	.loc 1 44 14 discriminator 3 view .LVU27
	incq	%rax
.LVL11:
	.loc 1 44 3 is_stmt 0 discriminator 3 view .LVU28
	cmpq	$32, %rax
	jne	.L8
	movq	%rsi, %r12
	leaq	32(%rdx), %rbp
	leaq	1184(%rdx), %rbx
.LVL12:
.L9:
	.loc 1 49 5 is_stmt 1 discriminator 3 view .LVU29
	movq	%rbp, %rsi
	movq	%r12, %rdi
	call	polyt1_unpack@PLT
.LVL13:
	.loc 1 48 21 discriminator 3 view .LVU30
	.loc 1 48 14 discriminator 3 view .LVU31
	addq	$1024, %r12
	addq	$288, %rbp
	.loc 1 48 3 is_stmt 0 discriminator 3 view .LVU32
	cmpq	%rbx, %rbp
	jne	.L9
	.loc 1 50 1 view .LVU33
	popq	%rbx
	.cfi_def_cfa_offset 24
	popq	%rbp
	.cfi_def_cfa_offset 16
	popq	%r12
	.cfi_def_cfa_offset 8
	ret
	.cfi_endproc
.LFE1:
	.size	unpack_pk, .-unpack_pk
	.globl	pack_sk
	.type	pack_sk, @function
pack_sk:
.LVL14:
.LFB2:
	.loc 1 72 1 is_stmt 1 view -0
	.cfi_startproc
	.loc 1 72 1 is_stmt 0 view .LVU35
	endbr64
	pushq	%r13
	.cfi_def_cfa_offset 16
	.cfi_offset 13, -16
	pushq	%r12
	.cfi_def_cfa_offset 24
	.cfi_offset 12, -24
	pushq	%rbp
	.cfi_def_cfa_offset 32
	.cfi_offset 6, -32
	pushq	%rbx
	.cfi_def_cfa_offset 40
	.cfi_offset 3, -40
	subq	$8, %rsp
	.cfi_def_cfa_offset 48
	movq	%rdi, %rbx
	movq	%r8, %r12
	movq	%r9, %rbp
	.loc 1 73 3 is_stmt 1 view .LVU36
	.loc 1 75 3 view .LVU37
.LVL15:
	.loc 1 75 14 view .LVU38
	.loc 1 72 1 is_stmt 0 view .LVU39
	movl	$0, %eax
.LVL16:
.L14:
	.loc 1 76 5 is_stmt 1 discriminator 3 view .LVU40
	.loc 1 76 16 is_stmt 0 discriminator 3 view .LVU41
	movzbl	(%rsi,%rax), %edi
	.loc 1 76 11 discriminator 3 view .LVU42
	movb	%dil, (%rbx,%rax)
	.loc 1 75 29 is_stmt 1 discriminator 3 view .LVU43
.LVL17:
	.loc 1 75 14 discriminator 3 view .LVU44
	incq	%rax
.LVL18:
	.loc 1 75 3 is_stmt 0 discriminator 3 view .LVU45
	cmpq	$32, %rax
	jne	.L14
	movl	$0, %eax
.LVL19:
.L15:
	.loc 1 80 5 is_stmt 1 discriminator 3 view .LVU46
	.loc 1 80 16 is_stmt 0 discriminator 3 view .LVU47
	movzbl	(%rdx,%rax), %esi
	.loc 1 80 11 discriminator 3 view .LVU48
	movb	%sil, 32(%rbx,%rax)
	.loc 1 79 29 is_stmt 1 discriminator 3 view .LVU49
.LVL20:
	.loc 1 79 14 discriminator 3 view .LVU50
	incq	%rax
.LVL21:
	.loc 1 79 3 is_stmt 0 discriminator 3 view .LVU51
	cmpq	$32, %rax
	jne	.L15
	movl	$0, %eax
.LVL22:
.L16:
	.loc 1 84 5 is_stmt 1 discriminator 3 view .LVU52
	.loc 1 84 15 is_stmt 0 discriminator 3 view .LVU53
	movzbl	(%rcx,%rax), %edx
	.loc 1 84 11 discriminator 3 view .LVU54
	movb	%dl, 64(%rbx,%rax)
	.loc 1 83 28 is_stmt 1 discriminator 3 view .LVU55
.LVL23:
	.loc 1 83 14 discriminator 3 view .LVU56
	incq	%rax
.LVL24:
	.loc 1 83 3 is_stmt 0 discriminator 3 view .LVU57
	cmpq	$48, %rax
	jne	.L16
	.loc 1 85 3 is_stmt 1 view .LVU58
.LVL25:
	.loc 1 87 3 view .LVU59
	.loc 1 87 14 view .LVU60
	.loc 1 88 5 view .LVU61
	.loc 1 85 6 is_stmt 0 view .LVU62
	leaq	112(%rbx), %rdi
.LVL26:
	.loc 1 88 5 view .LVU63
	movq	%r12, %rsi
	call	polyeta_pack@PLT
.LVL27:
	.loc 1 87 21 is_stmt 1 view .LVU64
	.loc 1 87 14 view .LVU65
	.loc 1 88 5 view .LVU66
	leaq	1024(%r12), %rsi
	leaq	240(%rbx), %rdi
	call	polyeta_pack@PLT
.LVL28:
	.loc 1 87 21 view .LVU67
	.loc 1 87 14 view .LVU68
	.loc 1 88 5 view .LVU69
	leaq	2048(%r12), %rsi
	leaq	368(%rbx), %rdi
	call	polyeta_pack@PLT
.LVL29:
	.loc 1 87 21 view .LVU70
	.loc 1 87 14 view .LVU71
	.loc 1 89 3 view .LVU72
	.loc 1 91 3 view .LVU73
	.loc 1 91 14 view .LVU74
	leaq	496(%rbx), %r13
.LVL30:
	.loc 1 91 14 is_stmt 0 view .LVU75
	movq	%rbp, %r12
.LVL31:
	.loc 1 91 14 view .LVU76
	addq	$4096, %rbp
.LVL32:
.L17:
	.loc 1 92 5 is_stmt 1 discriminator 3 view .LVU77
	movq	%r12, %rsi
	movq	%r13, %rdi
	call	polyeta_pack@PLT
.LVL33:
	.loc 1 91 21 discriminator 3 view .LVU78
	.loc 1 91 14 discriminator 3 view .LVU79
	subq	$-128, %r13
	addq	$1024, %r12
	.loc 1 91 3 is_stmt 0 discriminator 3 view .LVU80
	cmpq	%rbp, %r12
	jne	.L17
	.loc 1 93 3 is_stmt 1 view .LVU81
.LVL34:
	.loc 1 95 3 view .LVU82
	.loc 1 95 14 view .LVU83
	leaq	1008(%rbx), %rbp
.LVL35:
	.loc 1 95 14 is_stmt 0 view .LVU84
	movq	48(%rsp), %r12
	addq	$2800, %rbx
.LVL36:
.L18:
	.loc 1 96 5 is_stmt 1 discriminator 3 view .LVU85
	movq	%r12, %rsi
	movq	%rbp, %rdi
	call	polyt0_pack@PLT
.LVL37:
	.loc 1 95 21 discriminator 3 view .LVU86
	.loc 1 95 14 discriminator 3 view .LVU87
	addq	$448, %rbp
	addq	$1024, %r12
	.loc 1 95 3 is_stmt 0 discriminator 3 view .LVU88
	cmpq	%rbp, %rbx
	jne	.L18
	.loc 1 97 1 view .LVU89
	addq	$8, %rsp
	.cfi_def_cfa_offset 40
	popq	%rbx
	.cfi_def_cfa_offset 32
.LVL38:
	.loc 1 97 1 view .LVU90
	popq	%rbp
	.cfi_def_cfa_offset 24
	popq	%r12
	.cfi_def_cfa_offset 16
	popq	%r13
	.cfi_def_cfa_offset 8
	ret
	.cfi_endproc
.LFE2:
	.size	pack_sk, .-pack_sk
	.globl	unpack_sk
	.type	unpack_sk, @function
unpack_sk:
.LVL39:
.LFB3:
	.loc 1 119 1 is_stmt 1 view -0
	.cfi_startproc
	.loc 1 119 1 is_stmt 0 view .LVU92
	endbr64
	pushq	%r14
	.cfi_def_cfa_offset 16
	.cfi_offset 14, -16
	pushq	%r13
	.cfi_def_cfa_offset 24
	.cfi_offset 13, -24
	pushq	%r12
	.cfi_def_cfa_offset 32
	.cfi_offset 12, -32
	pushq	%rbp
	.cfi_def_cfa_offset 40
	.cfi_offset 6, -40
	pushq	%rbx
	.cfi_def_cfa_offset 48
	.cfi_offset 3, -48
	movq	%rcx, %r13
	movq	%r8, %r12
	movq	%r9, %rbp
	movq	48(%rsp), %rbx
	.loc 1 120 3 is_stmt 1 view .LVU93
	.loc 1 122 3 view .LVU94
.LVL40:
	.loc 1 122 14 view .LVU95
	.loc 1 119 1 is_stmt 0 view .LVU96
	movl	$0, %eax
.LVL41:
.L26:
	.loc 1 123 5 is_stmt 1 discriminator 3 view .LVU97
	.loc 1 123 16 is_stmt 0 discriminator 3 view .LVU98
	movzbl	(%rbx,%rax), %ecx
	.loc 1 123 12 discriminator 3 view .LVU99
	movb	%cl, (%rdi,%rax)
	.loc 1 122 29 is_stmt 1 discriminator 3 view .LVU100
.LVL42:
	.loc 1 122 14 discriminator 3 view .LVU101
	incq	%rax
.LVL43:
	.loc 1 122 3 is_stmt 0 discriminator 3 view .LVU102
	cmpq	$32, %rax
	jne	.L26
	movl	$0, %eax
.LVL44:
.L27:
	.loc 1 127 5 is_stmt 1 discriminator 3 view .LVU103
	.loc 1 127 16 is_stmt 0 discriminator 3 view .LVU104
	movzbl	32(%rbx,%rax), %ecx
	.loc 1 127 12 discriminator 3 view .LVU105
	movb	%cl, (%rsi,%rax)
	.loc 1 126 29 is_stmt 1 discriminator 3 view .LVU106
.LVL45:
	.loc 1 126 14 discriminator 3 view .LVU107
	incq	%rax
.LVL46:
	.loc 1 126 3 is_stmt 0 discriminator 3 view .LVU108
	cmpq	$32, %rax
	jne	.L27
	movl	$0, %eax
.L28:
.LVL47:
	.loc 1 131 5 is_stmt 1 discriminator 3 view .LVU109
	.loc 1 131 15 is_stmt 0 discriminator 3 view .LVU110
	movzbl	64(%rbx,%rax), %ecx
	.loc 1 131 11 discriminator 3 view .LVU111
	movb	%cl, (%rdx,%rax)
	.loc 1 130 28 is_stmt 1 discriminator 3 view .LVU112
.LVL48:
	.loc 1 130 14 discriminator 3 view .LVU113
	incq	%rax
.LVL49:
	.loc 1 130 3 is_stmt 0 discriminator 3 view .LVU114
	cmpq	$48, %rax
	jne	.L28
	.loc 1 132 3 is_stmt 1 view .LVU115
.LVL50:
	.loc 1 134 3 view .LVU116
	.loc 1 134 12 view .LVU117
	.loc 1 135 5 view .LVU118
	.loc 1 132 6 is_stmt 0 view .LVU119
	leaq	112(%rbx), %rsi
.LVL51:
	.loc 1 135 5 view .LVU120
	movq	%r13, %rdi
.LVL52:
	.loc 1 135 5 view .LVU121
	call	polyeta_unpack@PLT
.LVL53:
	.loc 1 134 19 is_stmt 1 view .LVU122
	.loc 1 134 12 view .LVU123
	.loc 1 135 5 view .LVU124
	leaq	240(%rbx), %rsi
	leaq	1024(%r13), %rdi
	call	polyeta_unpack@PLT
.LVL54:
	.loc 1 134 19 view .LVU125
	.loc 1 134 12 view .LVU126
	.loc 1 135 5 view .LVU127
	leaq	368(%rbx), %rsi
	leaq	2048(%r13), %rdi
	call	polyeta_unpack@PLT
.LVL55:
	.loc 1 134 19 view .LVU128
	.loc 1 134 12 view .LVU129
	.loc 1 136 3 view .LVU130
	.loc 1 138 3 view .LVU131
	.loc 1 138 12 view .LVU132
	movq	%r12, %r13
.LVL56:
	.loc 1 138 12 is_stmt 0 view .LVU133
	leaq	496(%rbx), %r14
.LVL57:
	.loc 1 138 12 view .LVU134
	addq	$4096, %r12
.LVL58:
.L29:
	.loc 1 139 5 is_stmt 1 discriminator 3 view .LVU135
	movq	%r14, %rsi
	movq	%r13, %rdi
	call	polyeta_unpack@PLT
.LVL59:
	.loc 1 138 19 discriminator 3 view .LVU136
	.loc 1 138 12 discriminator 3 view .LVU137
	addq	$1024, %r13
	subq	$-128, %r14
	.loc 1 138 3 is_stmt 0 discriminator 3 view .LVU138
	cmpq	%r12, %r13
	jne	.L29
	.loc 1 140 3 is_stmt 1 view .LVU139
.LVL60:
	.loc 1 142 3 view .LVU140
	.loc 1 142 12 view .LVU141
	leaq	1008(%rbx), %r12
.LVL61:
	.loc 1 142 12 is_stmt 0 view .LVU142
	addq	$2800, %rbx
.LVL62:
.L30:
	.loc 1 143 5 is_stmt 1 discriminator 3 view .LVU143
	movq	%r12, %rsi
	movq	%rbp, %rdi
	call	polyt0_unpack@PLT
.LVL63:
	.loc 1 142 19 discriminator 3 view .LVU144
	.loc 1 142 12 discriminator 3 view .LVU145
	addq	$1024, %rbp
	addq	$448, %r12
	.loc 1 142 3 is_stmt 0 discriminator 3 view .LVU146
	cmpq	%r12, %rbx
	jne	.L30
	.loc 1 144 1 view .LVU147
	popq	%rbx
	.cfi_def_cfa_offset 40
	popq	%rbp
	.cfi_def_cfa_offset 32
	popq	%r12
	.cfi_def_cfa_offset 24
	popq	%r13
	.cfi_def_cfa_offset 16
	popq	%r14
	.cfi_def_cfa_offset 8
	ret
	.cfi_endproc
.LFE3:
	.size	unpack_sk, .-unpack_sk
	.globl	pack_sig
	.type	pack_sig, @function
pack_sig:
.LVL64:
.LFB4:
	.loc 1 160 1 is_stmt 1 view -0
	.cfi_startproc
	.loc 1 160 1 is_stmt 0 view .LVU149
	endbr64
	pushq	%r13
	.cfi_def_cfa_offset 16
	.cfi_offset 13, -16
	pushq	%r12
	.cfi_def_cfa_offset 24
	.cfi_offset 12, -24
	pushq	%rbp
	.cfi_def_cfa_offset 32
	.cfi_offset 6, -32
	pushq	%rbx
	.cfi_def_cfa_offset 40
	.cfi_offset 3, -40
	subq	$8, %rsp
	.cfi_def_cfa_offset 48
	movq	%rdi, %rbp
	movq	%rsi, %r13
	movq	%rdx, %r12
	movq	%rcx, %rbx
	.loc 1 161 3 is_stmt 1 view .LVU150
	.loc 1 162 3 view .LVU151
	.loc 1 164 3 view .LVU152
.LVL65:
	.loc 1 164 14 view .LVU153
	.loc 1 165 5 view .LVU154
	call	polyz_pack@PLT
.LVL66:
	.loc 1 164 21 view .LVU155
	.loc 1 164 14 view .LVU156
	.loc 1 165 5 view .LVU157
	leaq	1024(%r13), %rsi
	leaq	640(%rbp), %rdi
	call	polyz_pack@PLT
.LVL67:
	.loc 1 164 21 view .LVU158
	.loc 1 164 14 view .LVU159
	.loc 1 165 5 view .LVU160
	leaq	2048(%r13), %rsi
	leaq	1280(%rbp), %rdi
	call	polyz_pack@PLT
.LVL68:
	.loc 1 164 21 view .LVU161
	.loc 1 164 14 view .LVU162
	.loc 1 166 3 view .LVU163
	.loc 1 169 3 view .LVU164
	.loc 1 170 3 view .LVU165
	.loc 1 170 14 view .LVU166
	leaq	2000(%rbp), %rdi
	movq	%r12, %rcx
	leaq	4096(%r12), %r8
	.loc 1 169 5 is_stmt 0 view .LVU167
	movl	$0, %edx
	jmp	.L38
.LVL69:
.L39:
	.loc 1 171 23 is_stmt 1 discriminator 2 view .LVU168
	.loc 1 171 16 discriminator 2 view .LVU169
	incq	%rax
.LVL70:
	.loc 1 171 5 is_stmt 0 discriminator 2 view .LVU170
	cmpq	$256, %rax
	je	.L55
.L40:
.LVL71:
	.loc 1 172 7 is_stmt 1 view .LVU171
	.loc 1 172 9 is_stmt 0 view .LVU172
	cmpl	$0, (%rcx,%rax,4)
	je	.L39
	.loc 1 173 9 is_stmt 1 view .LVU173
.LVL72:
	.loc 1 173 14 is_stmt 0 view .LVU174
	movl	%edx, %esi
	.loc 1 173 18 view .LVU175
	movb	%al, 1920(%rbp,%rsi)
	.loc 1 173 14 view .LVU176
	leal	1(%rdx), %edx
.LVL73:
	.loc 1 173 14 view .LVU177
	jmp	.L39
.LVL74:
.L55:
	.loc 1 175 5 is_stmt 1 discriminator 2 view .LVU178
	.loc 1 175 20 is_stmt 0 discriminator 2 view .LVU179
	movb	%dl, (%rdi)
	.loc 1 170 21 is_stmt 1 discriminator 2 view .LVU180
.LVL75:
	.loc 1 170 14 discriminator 2 view .LVU181
	incq	%rdi
.LVL76:
	.loc 1 170 14 is_stmt 0 discriminator 2 view .LVU182
	addq	$1024, %rcx
	.loc 1 170 3 discriminator 2 view .LVU183
	cmpq	%r8, %rcx
	je	.L41
.LVL77:
.L38:
	.loc 1 171 16 is_stmt 1 view .LVU184
	.loc 1 160 1 is_stmt 0 view .LVU185
	movl	$0, %eax
	jmp	.L40
.LVL78:
.L41:
	.loc 1 177 8 is_stmt 1 view .LVU186
	cmpl	$79, %edx
	ja	.L42
	movl	%edx, %ecx
	leaq	1920(%rbp,%rcx), %rax
	leaq	1921(%rbp,%rcx), %rcx
	movl	$79, %esi
	movl	%esi, %edi
	subl	%edx, %edi
	movq	%rdi, %rdx
.LVL79:
	.loc 1 177 8 is_stmt 0 view .LVU187
	addq	%rcx, %rdx
.L43:
.LVL80:
	.loc 1 177 20 is_stmt 1 discriminator 2 view .LVU188
	.loc 1 177 29 is_stmt 0 discriminator 2 view .LVU189
	movb	$0, (%rax)
	.loc 1 177 8 is_stmt 1 discriminator 2 view .LVU190
	incq	%rax
.LVL81:
	.loc 1 177 8 is_stmt 0 discriminator 2 view .LVU191
	cmpq	%rdx, %rax
	jne	.L43
.L42:
	.loc 1 178 3 is_stmt 1 view .LVU192
.LVL82:
	.loc 1 181 3 view .LVU193
	.loc 1 182 3 view .LVU194
	.loc 1 183 3 view .LVU195
	.loc 1 183 14 view .LVU196
	leaq	2004(%rbp), %r11
.LVL83:
	.loc 1 169 5 is_stmt 0 view .LVU197
	movl	$0, %edi
	.loc 1 182 8 view .LVU198
	movl	$1, %esi
	.loc 1 181 9 view .LVU199
	movl	$0, %ecx
	.loc 1 187 23 view .LVU200
	movl	$1, %r10d
	jmp	.L47
.LVL84:
.L44:
	.loc 1 185 23 is_stmt 1 discriminator 2 view .LVU201
	incl	%eax
.LVL85:
	.loc 1 185 16 discriminator 2 view .LVU202
	.loc 1 185 5 is_stmt 0 discriminator 2 view .LVU203
	cmpl	$8, %eax
	je	.L56
.LVL86:
.L46:
	.loc 1 186 7 is_stmt 1 view .LVU204
	leal	(%rdi,%rax), %edx
	leaq	(%rbx,%rdx,4), %rdx
	.loc 1 186 9 is_stmt 0 view .LVU205
	cmpl	$0, (%rdx)
	je	.L44
	.loc 1 187 9 is_stmt 1 view .LVU206
	.loc 1 187 23 is_stmt 0 view .LVU207
	shlx	%eax, %r10d, %r9d
	.loc 1 187 16 view .LVU208
	orb	%r9b, (%r8)
	.loc 1 188 9 is_stmt 1 view .LVU209
	.loc 1 188 47 is_stmt 0 view .LVU210
	movq	%rcx, %r9
	orq	%rsi, %r9
	cmpl	$8380416, (%rdx)
	cmove	%r9, %rcx
.LVL87:
	.loc 1 189 9 is_stmt 1 view .LVU211
	.loc 1 189 14 is_stmt 0 view .LVU212
	addq	%rsi, %rsi
.LVL88:
	.loc 1 189 14 view .LVU213
	jmp	.L44
.L56:
	.loc 1 183 23 is_stmt 1 discriminator 2 view .LVU214
.LVL89:
	.loc 1 183 14 discriminator 2 view .LVU215
	incq	%r11
.LVL90:
	.loc 1 183 14 is_stmt 0 discriminator 2 view .LVU216
	addl	$8, %edi
	.loc 1 183 3 discriminator 2 view .LVU217
	cmpl	$256, %edi
	je	.L57
.LVL91:
.L47:
	.loc 1 184 5 is_stmt 1 view .LVU218
	movq	%r11, %r8
	.loc 1 184 12 is_stmt 0 view .LVU219
	movb	$0, (%r11)
	.loc 1 185 5 is_stmt 1 view .LVU220
.LVL92:
	.loc 1 185 16 view .LVU221
	.loc 1 185 11 is_stmt 0 view .LVU222
	movl	$0, %eax
	jmp	.L46
.LVL93:
.L57:
	.loc 1 185 11 view .LVU223
	movl	$0, %eax
.LVL94:
.L48:
	.loc 1 195 5 is_stmt 1 discriminator 3 view .LVU224
	.loc 1 195 20 is_stmt 0 discriminator 3 view .LVU225
	leal	0(,%rax,8), %edx
	shrx	%rdx, %rcx, %rdx
	.loc 1 195 12 discriminator 3 view .LVU226
	movb	%dl, 2036(%rbp,%rax)
	.loc 1 194 21 is_stmt 1 discriminator 3 view .LVU227
.LVL95:
	.loc 1 194 14 discriminator 3 view .LVU228
	incq	%rax
.LVL96:
	.loc 1 194 3 is_stmt 0 discriminator 3 view .LVU229
	cmpq	$8, %rax
	jne	.L48
	.loc 1 196 1 view .LVU230
	addq	$8, %rsp
	.cfi_def_cfa_offset 40
	popq	%rbx
	.cfi_def_cfa_offset 32
.LVL97:
	.loc 1 196 1 view .LVU231
	popq	%rbp
	.cfi_def_cfa_offset 24
	popq	%r12
	.cfi_def_cfa_offset 16
.LVL98:
	.loc 1 196 1 view .LVU232
	popq	%r13
	.cfi_def_cfa_offset 8
.LVL99:
	.loc 1 196 1 view .LVU233
	ret
	.cfi_endproc
.LFE4:
	.size	pack_sig, .-pack_sig
	.globl	unpack_sig
	.type	unpack_sig, @function
unpack_sig:
.LVL100:
.LFB5:
	.loc 1 215 1 is_stmt 1 view -0
	.cfi_startproc
	.loc 1 215 1 is_stmt 0 view .LVU235
	endbr64
	pushq	%r13
	.cfi_def_cfa_offset 16
	.cfi_offset 13, -16
	pushq	%r12
	.cfi_def_cfa_offset 24
	.cfi_offset 12, -24
	pushq	%rbp
	.cfi_def_cfa_offset 32
	.cfi_offset 6, -32
	pushq	%rbx
	.cfi_def_cfa_offset 40
	.cfi_offset 3, -40
	subq	$8, %rsp
	.cfi_def_cfa_offset 48
	movq	%rdi, %r13
	movq	%rsi, %r12
	movq	%rdx, %rbx
	movq	%rcx, %rbp
	.loc 1 216 3 is_stmt 1 view .LVU236
	.loc 1 217 3 view .LVU237
	.loc 1 219 3 view .LVU238
.LVL101:
	.loc 1 219 14 view .LVU239
	.loc 1 220 5 view .LVU240
	movq	%rcx, %rsi
.LVL102:
	.loc 1 220 5 is_stmt 0 view .LVU241
	call	polyz_unpack@PLT
.LVL103:
	.loc 1 219 21 is_stmt 1 view .LVU242
	.loc 1 219 14 view .LVU243
	.loc 1 220 5 view .LVU244
	leaq	640(%rbp), %rsi
	leaq	1024(%r13), %rdi
	call	polyz_unpack@PLT
.LVL104:
	.loc 1 219 21 view .LVU245
	.loc 1 219 14 view .LVU246
	.loc 1 220 5 view .LVU247
	leaq	1280(%rbp), %rsi
	leaq	2048(%r13), %rdi
	call	polyz_unpack@PLT
.LVL105:
	.loc 1 219 21 view .LVU248
	.loc 1 219 14 view .LVU249
	.loc 1 221 3 view .LVU250
	.loc 1 221 7 is_stmt 0 view .LVU251
	leaq	1920(%rbp), %rdi
.LVL106:
	.loc 1 224 3 is_stmt 1 view .LVU252
	.loc 1 225 3 view .LVU253
	.loc 1 225 14 view .LVU254
	leaq	2000(%rbp), %r10
	leaq	1024(%r12), %rdx
	.loc 1 224 5 is_stmt 0 view .LVU255
	movl	$0, %r8d
	.loc 1 225 9 view .LVU256
	movl	$0, %r11d
.LVL107:
.L59:
	.loc 1 226 16 is_stmt 1 view .LVU257
	leaq	-1024(%rdx), %rax
.LVL108:
.L60:
	.loc 1 227 7 discriminator 3 view .LVU258
	.loc 1 227 27 is_stmt 0 discriminator 3 view .LVU259
	movl	$0, (%rax)
	.loc 1 226 23 is_stmt 1 discriminator 3 view .LVU260
	.loc 1 226 16 discriminator 3 view .LVU261
	addq	$4, %rax
	.loc 1 226 5 is_stmt 0 discriminator 3 view .LVU262
	cmpq	%rdx, %rax
	jne	.L60
	.loc 1 229 5 is_stmt 1 view .LVU263
	movq	%r10, %r13
	.loc 1 229 11 is_stmt 0 view .LVU264
	movzbl	(%r10), %eax
	movzbl	%al, %esi
	.loc 1 229 27 view .LVU265
	cmpb	$80, %al
	ja	.L73
	cmpl	%r8d, %esi
	jb	.L73
.LVL109:
	.loc 1 232 16 is_stmt 1 view .LVU266
	.loc 1 232 5 is_stmt 0 view .LVU267
	movl	%r8d, %eax
	.loc 1 235 32 view .LVU268
	movl	%r11d, %r9d
	salq	$8, %r9
	.loc 1 232 5 view .LVU269
	cmpl	%r8d, %esi
	jbe	.L63
.LVL110:
.L79:
	.loc 1 235 7 is_stmt 1 discriminator 2 view .LVU270
	.loc 1 235 27 is_stmt 0 discriminator 2 view .LVU271
	movl	%eax, %ecx
	addq	%rdi, %rcx
	.loc 1 235 32 discriminator 2 view .LVU272
	movzbl	(%rcx), %esi
	addq	%r9, %rsi
	movl	$1, (%r12,%rsi,4)
	.loc 1 232 36 is_stmt 1 discriminator 2 view .LVU273
	incl	%eax
.LVL111:
	.loc 1 232 16 discriminator 2 view .LVU274
	.loc 1 232 23 is_stmt 0 discriminator 2 view .LVU275
	movzbl	0(%r13), %esi
	.loc 1 232 5 discriminator 2 view .LVU276
	cmpl	%eax, %esi
	jbe	.L63
	.loc 1 234 7 is_stmt 1 view .LVU277
	.loc 1 234 9 is_stmt 0 view .LVU278
	cmpl	%r8d, %eax
	jbe	.L79
	.loc 1 234 22 discriminator 1 view .LVU279
	movl	%eax, %esi
	.loc 1 234 16 discriminator 1 view .LVU280
	movzbl	(%rcx), %ecx
	cmpb	%cl, (%rdi,%rsi)
	ja	.L79
	.loc 1 234 46 view .LVU281
	movl	$1, %eax
.LVL112:
.L58:
	.loc 1 271 1 view .LVU282
	addq	$8, %rsp
	.cfi_remember_state
	.cfi_def_cfa_offset 40
	popq	%rbx
	.cfi_def_cfa_offset 32
.LVL113:
	.loc 1 271 1 view .LVU283
	popq	%rbp
	.cfi_def_cfa_offset 24
	popq	%r12
	.cfi_def_cfa_offset 16
.LVL114:
	.loc 1 271 1 view .LVU284
	popq	%r13
	.cfi_def_cfa_offset 8
	ret
.LVL115:
.L63:
	.cfi_restore_state
	.loc 1 238 5 is_stmt 1 discriminator 2 view .LVU285
	.loc 1 225 21 discriminator 2 view .LVU286
	incl	%r11d
.LVL116:
	.loc 1 225 14 discriminator 2 view .LVU287
	incq	%r10
	addq	$1024, %rdx
	.loc 1 225 3 is_stmt 0 discriminator 2 view .LVU288
	cmpl	$4, %r11d
	je	.L65
	movl	%esi, %r8d
	jmp	.L59
.L65:
.LVL117:
	.loc 1 242 14 is_stmt 1 view .LVU289
	.loc 1 242 3 is_stmt 0 view .LVU290
	cmpl	$79, %esi
	ja	.L66
	movl	%esi, %edx
	leaq	1920(%rbp,%rdx), %rax
	leaq	1921(%rbp,%rdx), %rdx
	movl	$79, %ecx
	subl	%esi, %ecx
	addq	%rcx, %rdx
.LVL118:
.L67:
	.loc 1 243 5 is_stmt 1 view .LVU291
	.loc 1 243 7 is_stmt 0 view .LVU292
	cmpb	$0, (%rax)
	jne	.L76
	.loc 1 242 25 is_stmt 1 discriminator 2 view .LVU293
.LVL119:
	.loc 1 242 14 discriminator 2 view .LVU294
	incq	%rax
.LVL120:
	.loc 1 242 3 is_stmt 0 discriminator 2 view .LVU295
	cmpq	%rdx, %rax
	jne	.L67
.L66:
	.loc 1 246 3 is_stmt 1 view .LVU296
.LVL121:
	.loc 1 249 3 view .LVU297
	.loc 1 249 14 view .LVU298
	movq	%rbx, %rax
	leaq	1024(%rbx), %rdx
.LVL122:
.L68:
	.loc 1 250 5 discriminator 3 view .LVU299
	.loc 1 250 18 is_stmt 0 discriminator 3 view .LVU300
	movl	$0, (%rax)
	.loc 1 249 21 is_stmt 1 discriminator 3 view .LVU301
	.loc 1 249 14 discriminator 3 view .LVU302
	addq	$4, %rax
	.loc 1 249 3 is_stmt 0 discriminator 3 view .LVU303
	cmpq	%rax, %rdx
	jne	.L68
	movl	$0, %eax
	.loc 1 252 9 view .LVU304
	movl	$0, %ecx
.LVL123:
.L69:
	.loc 1 254 5 is_stmt 1 discriminator 3 view .LVU305
	.loc 1 254 14 is_stmt 0 discriminator 3 view .LVU306
	movzbl	2036(%rbp,%rax), %edx
	.loc 1 254 35 discriminator 3 view .LVU307
	leal	0(,%rax,8), %esi
	shlx	%rsi, %rdx, %rdx
	.loc 1 254 11 discriminator 3 view .LVU308
	orq	%rdx, %rcx
.LVL124:
	.loc 1 253 21 is_stmt 1 discriminator 3 view .LVU309
	.loc 1 253 14 discriminator 3 view .LVU310
	incq	%rax
.LVL125:
	.loc 1 253 3 is_stmt 0 discriminator 3 view .LVU311
	cmpq	$8, %rax
	jne	.L69
	.loc 1 257 3 is_stmt 1 view .LVU312
	.loc 1 258 12 is_stmt 0 view .LVU313
	movl	$1, %eax
	.loc 1 257 5 view .LVU314
	movq	%rcx, %rdi
	shrq	$60, %rdi
	jne	.L58
	addq	$2004, %rbp
.LVL126:
	.loc 1 257 5 view .LVU315
	movl	$0, %edi
	jmp	.L70
.LVL127:
.L71:
	.loc 1 261 23 is_stmt 1 discriminator 2 view .LVU316
	incl	%eax
.LVL128:
	.loc 1 261 16 discriminator 2 view .LVU317
	.loc 1 261 5 is_stmt 0 discriminator 2 view .LVU318
	cmpl	$8, %eax
	je	.L87
.LVL129:
.L72:
	.loc 1 262 7 is_stmt 1 view .LVU319
	.loc 1 262 14 is_stmt 0 view .LVU320
	movzbl	0(%rbp), %edx
	.loc 1 262 9 view .LVU321
	btl	%eax, %edx
	jnc	.L71
	.loc 1 263 9 is_stmt 1 view .LVU322
	.loc 1 264 9 view .LVU323
	.loc 1 264 26 is_stmt 0 view .LVU324
	leal	(%rax,%rdi), %esi
	.loc 1 264 37 view .LVU325
	movl	%ecx, %edx
	andl	$1, %edx
	.loc 1 264 42 view .LVU326
	negl	%edx
	andl	$8380417, %edx
	.loc 1 264 26 view .LVU327
	xorl	$1, %edx
	movl	%edx, (%rbx,%rsi,4)
	.loc 1 265 9 is_stmt 1 view .LVU328
	.loc 1 265 15 is_stmt 0 view .LVU329
	shrq	%rcx
.LVL130:
	.loc 1 265 15 view .LVU330
	jmp	.L71
.L87:
	.loc 1 260 23 is_stmt 1 discriminator 2 view .LVU331
.LVL131:
	.loc 1 260 14 discriminator 2 view .LVU332
	addl	$8, %edi
	incq	%rbp
.LVL132:
	.loc 1 260 3 is_stmt 0 discriminator 2 view .LVU333
	cmpl	$256, %edi
	je	.L78
.LVL133:
.L70:
	.loc 1 261 16 is_stmt 1 view .LVU334
	.loc 1 261 11 is_stmt 0 view .LVU335
	movl	$0, %eax
	jmp	.L72
.LVL134:
.L73:
	.loc 1 230 14 view .LVU336
	movl	$1, %eax
	jmp	.L58
.LVL135:
.L76:
	.loc 1 244 14 view .LVU337
	movl	$1, %eax
.LVL136:
	.loc 1 244 14 view .LVU338
	jmp	.L58
.LVL137:
.L78:
	.loc 1 270 10 view .LVU339
	movl	$0, %eax
.LVL138:
	.loc 1 270 10 view .LVU340
	jmp	.L58
	.cfi_endproc
.LFE5:
	.size	unpack_sig, .-unpack_sig
.Letext0:
	.file 2 "/usr/include/x86_64-linux-gnu/bits/types.h"
	.file 3 "/usr/include/x86_64-linux-gnu/bits/stdint-uintn.h"
	.file 4 "poly.h"
	.file 5 "polyvec.h"
	.section	.note.GNU-stack,"",@progbits
	.section	.note.gnu.property,"a"
	.align 8
	.long	 1f - 0f
	.long	 4f - 1f
	.long	 5
0:
	.string	 "GNU"
1:
	.align 8
	.long	 0xc0000002
	.long	 3f - 2f
2:
	.long	 0x3
3:
	.align 8
4:
