	.file	"fips202.c"
	.text
.Ltext0:
	.type	KeccakF1600_StatePermute, @function
KeccakF1600_StatePermute:
.LVL0:
.LFB4:
	.file 1 "fips202.c"
	.loc 1 91 1 view -0
	.cfi_startproc
	.loc 1 91 1 is_stmt 0 view .LVU1
	pushq	%r15
	.cfi_def_cfa_offset 16
	.cfi_offset 15, -16
	pushq	%r14
	.cfi_def_cfa_offset 24
	.cfi_offset 14, -24
	pushq	%r13
	.cfi_def_cfa_offset 32
	.cfi_offset 13, -32
	pushq	%r12
	.cfi_def_cfa_offset 40
	.cfi_offset 12, -40
	pushq	%rbp
	.cfi_def_cfa_offset 48
	.cfi_offset 6, -48
	pushq	%rbx
	.cfi_def_cfa_offset 56
	.cfi_offset 3, -56
	subq	$96, %rsp
	.cfi_def_cfa_offset 152
	movq	%rdi, %rax
	movq	%rdi, 88(%rsp)
	.loc 1 92 9 is_stmt 1 view .LVU2
	.loc 1 94 9 view .LVU3
	.loc 1 95 9 view .LVU4
	.loc 1 96 9 view .LVU5
	.loc 1 97 9 view .LVU6
	.loc 1 98 9 view .LVU7
	.loc 1 99 9 view .LVU8
	.loc 1 100 9 view .LVU9
	.loc 1 101 9 view .LVU10
	.loc 1 102 9 view .LVU11
	.loc 1 103 9 view .LVU12
	.loc 1 104 9 view .LVU13
	.loc 1 105 9 view .LVU14
	.loc 1 108 9 view .LVU15
	.loc 1 108 13 is_stmt 0 view .LVU16
	movq	(%rdi), %rdx
	movq	%rdx, -112(%rsp)
.LVL1:
	.loc 1 109 9 is_stmt 1 view .LVU17
	.loc 1 109 13 is_stmt 0 view .LVU18
	movq	8(%rdi), %rdx
.LVL2:
	.loc 1 109 13 view .LVU19
	movq	%rdx, -104(%rsp)
.LVL3:
	.loc 1 110 9 is_stmt 1 view .LVU20
	.loc 1 110 13 is_stmt 0 view .LVU21
	movq	16(%rdi), %rdi
.LVL4:
	.loc 1 110 13 view .LVU22
	movq	%rdi, -96(%rsp)
.LVL5:
	.loc 1 111 9 is_stmt 1 view .LVU23
	.loc 1 111 13 is_stmt 0 view .LVU24
	movq	24(%rax), %rdx
.LVL6:
	.loc 1 111 13 view .LVU25
	movq	%rdx, -88(%rsp)
.LVL7:
	.loc 1 112 9 is_stmt 1 view .LVU26
	.loc 1 112 13 is_stmt 0 view .LVU27
	movq	32(%rax), %rdi
.LVL8:
	.loc 1 112 13 view .LVU28
	movq	%rdi, -80(%rsp)
.LVL9:
	.loc 1 113 9 is_stmt 1 view .LVU29
	.loc 1 113 13 is_stmt 0 view .LVU30
	movq	40(%rax), %rdx
.LVL10:
	.loc 1 113 13 view .LVU31
	movq	%rdx, -72(%rsp)
.LVL11:
	.loc 1 114 9 is_stmt 1 view .LVU32
	.loc 1 114 13 is_stmt 0 view .LVU33
	movq	48(%rax), %rdi
.LVL12:
	.loc 1 114 13 view .LVU34
	movq	%rdi, -64(%rsp)
.LVL13:
	.loc 1 115 9 is_stmt 1 view .LVU35
	.loc 1 115 13 is_stmt 0 view .LVU36
	movq	56(%rax), %rdx
.LVL14:
	.loc 1 115 13 view .LVU37
	movq	%rdx, -56(%rsp)
.LVL15:
	.loc 1 116 9 is_stmt 1 view .LVU38
	.loc 1 116 13 is_stmt 0 view .LVU39
	movq	64(%rax), %rdi
.LVL16:
	.loc 1 116 13 view .LVU40
	movq	%rdi, -48(%rsp)
.LVL17:
	.loc 1 117 9 is_stmt 1 view .LVU41
	.loc 1 117 13 is_stmt 0 view .LVU42
	movq	72(%rax), %rdx
.LVL18:
	.loc 1 117 13 view .LVU43
	movq	%rdx, -40(%rsp)
.LVL19:
	.loc 1 118 9 is_stmt 1 view .LVU44
	.loc 1 118 13 is_stmt 0 view .LVU45
	movq	80(%rax), %rdi
.LVL20:
	.loc 1 118 13 view .LVU46
	movq	%rdi, -32(%rsp)
.LVL21:
	.loc 1 119 9 is_stmt 1 view .LVU47
	.loc 1 119 13 is_stmt 0 view .LVU48
	movq	88(%rax), %rdx
.LVL22:
	.loc 1 119 13 view .LVU49
	movq	%rdx, -24(%rsp)
.LVL23:
	.loc 1 120 9 is_stmt 1 view .LVU50
	.loc 1 120 13 is_stmt 0 view .LVU51
	movq	96(%rax), %rbx
.LVL24:
	.loc 1 121 9 is_stmt 1 view .LVU52
	.loc 1 121 13 is_stmt 0 view .LVU53
	movq	104(%rax), %rdi
.LVL25:
	.loc 1 121 13 view .LVU54
	movq	%rdi, -16(%rsp)
.LVL26:
	.loc 1 122 9 is_stmt 1 view .LVU55
	.loc 1 122 13 is_stmt 0 view .LVU56
	movq	112(%rax), %rdx
.LVL27:
	.loc 1 122 13 view .LVU57
	movq	%rdx, -8(%rsp)
.LVL28:
	.loc 1 123 9 is_stmt 1 view .LVU58
	.loc 1 123 13 is_stmt 0 view .LVU59
	movq	120(%rax), %rdi
.LVL29:
	.loc 1 123 13 view .LVU60
	movq	%rdi, (%rsp)
.LVL30:
	.loc 1 124 9 is_stmt 1 view .LVU61
	.loc 1 124 13 is_stmt 0 view .LVU62
	movq	128(%rax), %r12
.LVL31:
	.loc 1 125 9 is_stmt 1 view .LVU63
	.loc 1 125 13 is_stmt 0 view .LVU64
	movq	136(%rax), %rdx
.LVL32:
	.loc 1 125 13 view .LVU65
	movq	%rdx, 8(%rsp)
.LVL33:
	.loc 1 126 9 is_stmt 1 view .LVU66
	.loc 1 126 13 is_stmt 0 view .LVU67
	movq	144(%rax), %r10
.LVL34:
	.loc 1 127 9 is_stmt 1 view .LVU68
	.loc 1 127 13 is_stmt 0 view .LVU69
	movq	152(%rax), %rdi
.LVL35:
	.loc 1 127 13 view .LVU70
	movq	%rdi, 16(%rsp)
.LVL36:
	.loc 1 128 9 is_stmt 1 view .LVU71
	.loc 1 128 13 is_stmt 0 view .LVU72
	movq	160(%rax), %rdx
.LVL37:
	.loc 1 129 9 is_stmt 1 view .LVU73
	.loc 1 129 13 is_stmt 0 view .LVU74
	movq	168(%rax), %rdi
.LVL38:
	.loc 1 129 13 view .LVU75
	movq	%rdi, 24(%rsp)
.LVL39:
	.loc 1 130 9 is_stmt 1 view .LVU76
	.loc 1 130 13 is_stmt 0 view .LVU77
	movq	176(%rax), %r9
.LVL40:
	.loc 1 131 9 is_stmt 1 view .LVU78
	.loc 1 131 13 is_stmt 0 view .LVU79
	movq	184(%rax), %rdi
.LVL41:
	.loc 1 131 13 view .LVU80
	movq	%rdi, 32(%rsp)
.LVL42:
	.loc 1 132 9 is_stmt 1 view .LVU81
	.loc 1 132 13 is_stmt 0 view .LVU82
	movq	192(%rax), %r11
.LVL43:
	.loc 1 134 9 is_stmt 1 view .LVU83
	.loc 1 134 25 view .LVU84
	leaq	KeccakF_RoundConstants(%rip), %rax
.LVL44:
	.loc 1 134 25 is_stmt 0 view .LVU85
	movq	%rax, -120(%rsp)
	movq	%r10, %rax
	movq	%rdx, %r10
.LVL45:
.L2:
	.loc 1 137 13 is_stmt 1 discriminator 3 view .LVU86
	.loc 1 137 22 is_stmt 0 discriminator 3 view .LVU87
	movq	-112(%rsp), %r14
	xorq	-72(%rsp), %r14
	.loc 1 137 26 discriminator 3 view .LVU88
	xorq	-32(%rsp), %r14
	.loc 1 137 30 discriminator 3 view .LVU89
	xorq	(%rsp), %r14
	.loc 1 137 17 discriminator 3 view .LVU90
	xorq	%r10, %r14
.LVL46:
	.loc 1 138 13 is_stmt 1 discriminator 3 view .LVU91
	.loc 1 138 22 is_stmt 0 discriminator 3 view .LVU92
	movq	-104(%rsp), %r13
	xorq	-64(%rsp), %r13
	.loc 1 138 26 discriminator 3 view .LVU93
	xorq	-24(%rsp), %r13
	.loc 1 138 30 discriminator 3 view .LVU94
	xorq	%r12, %r13
	.loc 1 138 17 discriminator 3 view .LVU95
	xorq	24(%rsp), %r13
.LVL47:
	.loc 1 139 13 is_stmt 1 discriminator 3 view .LVU96
	.loc 1 139 22 is_stmt 0 discriminator 3 view .LVU97
	movq	-96(%rsp), %rdi
	xorq	-56(%rsp), %rdi
	.loc 1 139 26 discriminator 3 view .LVU98
	xorq	%rbx, %rdi
	.loc 1 139 30 discriminator 3 view .LVU99
	xorq	8(%rsp), %rdi
	.loc 1 139 17 discriminator 3 view .LVU100
	movq	%rdi, %r15
	xorq	%r9, %r15
	movq	%r15, %rcx
.LVL48:
	.loc 1 140 13 is_stmt 1 discriminator 3 view .LVU101
	.loc 1 140 22 is_stmt 0 discriminator 3 view .LVU102
	movq	-88(%rsp), %r8
	xorq	-48(%rsp), %r8
	.loc 1 140 26 discriminator 3 view .LVU103
	xorq	-16(%rsp), %r8
	.loc 1 140 30 discriminator 3 view .LVU104
	xorq	%rax, %r8
	.loc 1 140 17 discriminator 3 view .LVU105
	xorq	32(%rsp), %r8
.LVL49:
	.loc 1 141 13 is_stmt 1 discriminator 3 view .LVU106
	.loc 1 141 22 is_stmt 0 discriminator 3 view .LVU107
	movq	-80(%rsp), %r15
	xorq	-40(%rsp), %r15
	.loc 1 141 26 discriminator 3 view .LVU108
	xorq	-8(%rsp), %r15
	.loc 1 141 30 discriminator 3 view .LVU109
	xorq	16(%rsp), %r15
	.loc 1 141 17 discriminator 3 view .LVU110
	xorq	%r11, %r15
.LVL50:
	.loc 1 144 13 is_stmt 1 discriminator 3 view .LVU111
	.loc 1 144 22 is_stmt 0 discriminator 3 view .LVU112
	rorx	$63, %r13, %rdx
	.loc 1 144 16 discriminator 3 view .LVU113
	xorq	%r15, %rdx
.LVL51:
	.loc 1 145 13 is_stmt 1 discriminator 3 view .LVU114
	.loc 1 145 22 is_stmt 0 discriminator 3 view .LVU115
	rorx	$63, %rcx, %rbp
	.loc 1 145 16 discriminator 3 view .LVU116
	xorq	%r14, %rbp
.LVL52:
	.loc 1 146 13 is_stmt 1 discriminator 3 view .LVU117
	.loc 1 146 22 is_stmt 0 discriminator 3 view .LVU118
	rorx	$63, %r8, %rsi
	.loc 1 146 16 discriminator 3 view .LVU119
	xorq	%rsi, %r13
.LVL53:
	.loc 1 147 13 is_stmt 1 discriminator 3 view .LVU120
	.loc 1 147 22 is_stmt 0 discriminator 3 view .LVU121
	rorx	$63, %r15, %rdi
	.loc 1 147 16 discriminator 3 view .LVU122
	xorq	%rcx, %rdi
.LVL54:
	.loc 1 148 13 is_stmt 1 discriminator 3 view .LVU123
	.loc 1 148 22 is_stmt 0 discriminator 3 view .LVU124
	rorx	$63, %r14, %r14
.LVL55:
	.loc 1 148 16 discriminator 3 view .LVU125
	xorq	%r14, %r8
.LVL56:
	.loc 1 150 13 is_stmt 1 discriminator 3 view .LVU126
	.loc 1 150 17 is_stmt 0 discriminator 3 view .LVU127
	movq	-112(%rsp), %rsi
	xorq	%rdx, %rsi
.LVL57:
	.loc 1 151 13 is_stmt 1 discriminator 3 view .LVU128
	.loc 1 152 13 discriminator 3 view .LVU129
	.loc 1 153 13 discriminator 3 view .LVU130
	.loc 1 152 17 is_stmt 0 discriminator 3 view .LVU131
	movq	-64(%rsp), %rcx
.LVL58:
	.loc 1 152 17 discriminator 3 view .LVU132
	xorq	%rbp, %rcx
.LVL59:
	.loc 1 153 17 discriminator 3 view .LVU133
	rorx	$20, %rcx, %r15
.LVL60:
	.loc 1 154 13 is_stmt 1 discriminator 3 view .LVU134
	.loc 1 155 13 discriminator 3 view .LVU135
	.loc 1 154 17 is_stmt 0 discriminator 3 view .LVU136
	xorq	%r13, %rbx
.LVL61:
	.loc 1 155 17 discriminator 3 view .LVU137
	rorx	$21, %rbx, %rbx
.LVL62:
	.loc 1 156 13 is_stmt 1 discriminator 3 view .LVU138
	.loc 1 157 13 discriminator 3 view .LVU139
	.loc 1 156 17 is_stmt 0 discriminator 3 view .LVU140
	xorq	%rdi, %rax
.LVL63:
	.loc 1 157 17 discriminator 3 view .LVU141
	rorx	$43, %rax, %rax
.LVL64:
	.loc 1 158 13 is_stmt 1 discriminator 3 view .LVU142
	.loc 1 159 13 discriminator 3 view .LVU143
	.loc 1 158 17 is_stmt 0 discriminator 3 view .LVU144
	xorq	%r8, %r11
.LVL65:
	.loc 1 159 17 discriminator 3 view .LVU145
	rorx	$50, %r11, %r11
.LVL66:
	.loc 1 160 13 is_stmt 1 discriminator 3 view .LVU146
	.loc 1 161 13 discriminator 3 view .LVU147
	.loc 1 160 33 is_stmt 0 discriminator 3 view .LVU148
	andn	%rbx, %r15, %r14
	movq	%r14, -112(%rsp)
	.loc 1 161 17 discriminator 3 view .LVU149
	movq	-120(%rsp), %rcx
.LVL67:
	.loc 1 161 17 discriminator 3 view .LVU150
	movq	%rsi, %r14
	xorq	(%rcx), %r14
	movq	%r14, %rcx
	movq	-112(%rsp), %r14
	xorq	%rcx, %r14
	movq	%r14, -112(%rsp)
.LVL68:
	.loc 1 162 13 is_stmt 1 discriminator 3 view .LVU151
	.loc 1 162 33 is_stmt 0 discriminator 3 view .LVU152
	andn	%rax, %rbx, %rcx
	.loc 1 162 17 discriminator 3 view .LVU153
	xorq	%r15, %rcx
	movq	%rcx, 40(%rsp)
.LVL69:
	.loc 1 163 13 is_stmt 1 discriminator 3 view .LVU154
	.loc 1 163 33 is_stmt 0 discriminator 3 view .LVU155
	andn	%r11, %rax, %r14
.LVL70:
	.loc 1 163 17 discriminator 3 view .LVU156
	xorq	%rbx, %r14
	movq	%r14, 48(%rsp)
.LVL71:
	.loc 1 164 13 is_stmt 1 discriminator 3 view .LVU157
	.loc 1 164 33 is_stmt 0 discriminator 3 view .LVU158
	andn	%rsi, %r11, %rbx
.LVL72:
	.loc 1 164 17 discriminator 3 view .LVU159
	xorq	%rax, %rbx
	movq	%rbx, -64(%rsp)
.LVL73:
	.loc 1 165 13 is_stmt 1 discriminator 3 view .LVU160
	.loc 1 165 33 is_stmt 0 discriminator 3 view .LVU161
	andn	%r15, %rsi, %rsi
.LVL74:
	.loc 1 165 17 discriminator 3 view .LVU162
	movq	%rsi, %rax
.LVL75:
	.loc 1 165 17 discriminator 3 view .LVU163
	xorq	%r11, %rax
	movq	%rax, 56(%rsp)
.LVL76:
	.loc 1 167 13 is_stmt 1 discriminator 3 view .LVU164
	.loc 1 168 13 discriminator 3 view .LVU165
	.loc 1 167 17 is_stmt 0 discriminator 3 view .LVU166
	movq	-88(%rsp), %rsi
	xorq	%rdi, %rsi
.LVL77:
	.loc 1 168 17 discriminator 3 view .LVU167
	rorx	$36, %rsi, %rsi
.LVL78:
	.loc 1 169 13 is_stmt 1 discriminator 3 view .LVU168
	.loc 1 170 13 discriminator 3 view .LVU169
	.loc 1 169 17 is_stmt 0 discriminator 3 view .LVU170
	movq	-40(%rsp), %rbx
.LVL79:
	.loc 1 169 17 discriminator 3 view .LVU171
	xorq	%r8, %rbx
.LVL80:
	.loc 1 170 17 discriminator 3 view .LVU172
	rorx	$44, %rbx, %rbx
.LVL81:
	.loc 1 171 13 is_stmt 1 discriminator 3 view .LVU173
	.loc 1 172 13 discriminator 3 view .LVU174
	.loc 1 171 17 is_stmt 0 discriminator 3 view .LVU175
	movq	-32(%rsp), %r15
	xorq	%rdx, %r15
.LVL82:
	.loc 1 172 17 discriminator 3 view .LVU176
	rorx	$61, %r15, %rcx
.LVL83:
	.loc 1 173 13 is_stmt 1 discriminator 3 view .LVU177
	.loc 1 174 13 discriminator 3 view .LVU178
	.loc 1 173 17 is_stmt 0 discriminator 3 view .LVU179
	xorq	%rbp, %r12
.LVL84:
	.loc 1 174 17 discriminator 3 view .LVU180
	rorx	$19, %r12, %r12
.LVL85:
	.loc 1 175 13 is_stmt 1 discriminator 3 view .LVU181
	.loc 1 176 13 discriminator 3 view .LVU182
	.loc 1 175 17 is_stmt 0 discriminator 3 view .LVU183
	xorq	%r13, %r9
.LVL86:
	.loc 1 176 17 discriminator 3 view .LVU184
	rorx	$3, %r9, %r9
.LVL87:
	.loc 1 177 13 is_stmt 1 discriminator 3 view .LVU185
	.loc 1 177 33 is_stmt 0 discriminator 3 view .LVU186
	andn	%rcx, %rbx, %rax
.LVL88:
	.loc 1 177 17 discriminator 3 view .LVU187
	xorq	%rsi, %rax
	movq	%rax, %r14
.LVL89:
	.loc 1 178 13 is_stmt 1 discriminator 3 view .LVU188
	.loc 1 178 33 is_stmt 0 discriminator 3 view .LVU189
	andn	%r12, %rcx, %r15
.LVL90:
	.loc 1 178 17 discriminator 3 view .LVU190
	xorq	%rbx, %r15
.LVL91:
	.loc 1 179 13 is_stmt 1 discriminator 3 view .LVU191
	.loc 1 179 33 is_stmt 0 discriminator 3 view .LVU192
	andn	%r9, %r12, %rax
.LVL92:
	.loc 1 179 17 discriminator 3 view .LVU193
	xorq	%rcx, %rax
	movq	%rax, -32(%rsp)
.LVL93:
	.loc 1 180 13 is_stmt 1 discriminator 3 view .LVU194
	.loc 1 180 33 is_stmt 0 discriminator 3 view .LVU195
	andn	%rsi, %r9, %r11
	.loc 1 180 17 discriminator 3 view .LVU196
	movq	%r11, %rcx
.LVL94:
	.loc 1 180 17 discriminator 3 view .LVU197
	xorq	%r12, %rcx
	movq	%rcx, 64(%rsp)
.LVL95:
	.loc 1 181 13 is_stmt 1 discriminator 3 view .LVU198
	.loc 1 181 33 is_stmt 0 discriminator 3 view .LVU199
	andn	%rbx, %rsi, %rsi
.LVL96:
	.loc 1 181 17 discriminator 3 view .LVU200
	xorq	%r9, %rsi
	movq	%rsi, -40(%rsp)
.LVL97:
	.loc 1 183 13 is_stmt 1 discriminator 3 view .LVU201
	.loc 1 184 13 discriminator 3 view .LVU202
	.loc 1 183 17 is_stmt 0 discriminator 3 view .LVU203
	movq	-104(%rsp), %r11
	xorq	%rbp, %r11
.LVL98:
	.loc 1 184 17 discriminator 3 view .LVU204
	rorx	$63, %r11, %rsi
.LVL99:
	.loc 1 185 13 is_stmt 1 discriminator 3 view .LVU205
	.loc 1 186 13 discriminator 3 view .LVU206
	.loc 1 185 17 is_stmt 0 discriminator 3 view .LVU207
	movq	-56(%rsp), %r11
.LVL100:
	.loc 1 185 17 discriminator 3 view .LVU208
	xorq	%r13, %r11
.LVL101:
	.loc 1 186 17 discriminator 3 view .LVU209
	rorx	$58, %r11, %r12
.LVL102:
	.loc 1 187 13 is_stmt 1 discriminator 3 view .LVU210
	.loc 1 188 13 discriminator 3 view .LVU211
	.loc 1 187 17 is_stmt 0 discriminator 3 view .LVU212
	movq	-16(%rsp), %r11
.LVL103:
	.loc 1 187 17 discriminator 3 view .LVU213
	xorq	%rdi, %r11
.LVL104:
	.loc 1 188 17 discriminator 3 view .LVU214
	rorx	$39, %r11, %rbx
.LVL105:
	.loc 1 189 13 is_stmt 1 discriminator 3 view .LVU215
	.loc 1 190 13 discriminator 3 view .LVU216
	.loc 1 189 17 is_stmt 0 discriminator 3 view .LVU217
	movq	16(%rsp), %r11
.LVL106:
	.loc 1 189 17 discriminator 3 view .LVU218
	xorq	%r8, %r11
.LVL107:
	.loc 1 190 17 discriminator 3 view .LVU219
	rorx	$56, %r11, %rax
.LVL108:
	.loc 1 191 13 is_stmt 1 discriminator 3 view .LVU220
	.loc 1 192 13 discriminator 3 view .LVU221
	.loc 1 191 17 is_stmt 0 discriminator 3 view .LVU222
	xorq	%rdx, %r10
.LVL109:
	.loc 1 192 17 discriminator 3 view .LVU223
	rorx	$46, %r10, %r9
.LVL110:
	.loc 1 193 13 is_stmt 1 discriminator 3 view .LVU224
	.loc 1 193 33 is_stmt 0 discriminator 3 view .LVU225
	andn	%rbx, %r12, %rcx
.LVL111:
	.loc 1 193 17 discriminator 3 view .LVU226
	movq	%rcx, %r11
.LVL112:
	.loc 1 193 17 discriminator 3 view .LVU227
	xorq	%rsi, %r11
	movq	%r11, -56(%rsp)
.LVL113:
	.loc 1 194 13 is_stmt 1 discriminator 3 view .LVU228
	.loc 1 194 33 is_stmt 0 discriminator 3 view .LVU229
	andn	%rax, %rbx, %r11
.LVL114:
	.loc 1 194 17 discriminator 3 view .LVU230
	xorq	%r12, %r11
	movq	%r11, 16(%rsp)
.LVL115:
	.loc 1 195 13 is_stmt 1 discriminator 3 view .LVU231
	.loc 1 195 33 is_stmt 0 discriminator 3 view .LVU232
	andn	%r9, %rax, %rcx
	.loc 1 195 17 discriminator 3 view .LVU233
	xorq	%rcx, %rbx
.LVL116:
	.loc 1 196 13 is_stmt 1 discriminator 3 view .LVU234
	.loc 1 196 33 is_stmt 0 discriminator 3 view .LVU235
	andn	%rsi, %r9, %rcx
	.loc 1 196 17 discriminator 3 view .LVU236
	movq	%rcx, %r10
.LVL117:
	.loc 1 196 17 discriminator 3 view .LVU237
	xorq	%rax, %r10
	movq	%r10, -16(%rsp)
.LVL118:
	.loc 1 197 13 is_stmt 1 discriminator 3 view .LVU238
	.loc 1 197 33 is_stmt 0 discriminator 3 view .LVU239
	andn	%r12, %rsi, %rsi
.LVL119:
	.loc 1 197 17 discriminator 3 view .LVU240
	xorq	%r9, %rsi
	movq	%rsi, 72(%rsp)
.LVL120:
	.loc 1 199 13 is_stmt 1 discriminator 3 view .LVU241
	.loc 1 200 13 discriminator 3 view .LVU242
	.loc 1 199 17 is_stmt 0 discriminator 3 view .LVU243
	movq	-80(%rsp), %r10
.LVL121:
	.loc 1 199 17 discriminator 3 view .LVU244
	xorq	%r8, %r10
.LVL122:
	.loc 1 200 17 discriminator 3 view .LVU245
	rorx	$37, %r10, %rcx
.LVL123:
	.loc 1 201 13 is_stmt 1 discriminator 3 view .LVU246
	.loc 1 202 13 discriminator 3 view .LVU247
	.loc 1 201 17 is_stmt 0 discriminator 3 view .LVU248
	movq	-72(%rsp), %r12
.LVL124:
	.loc 1 201 17 discriminator 3 view .LVU249
	xorq	%rdx, %r12
.LVL125:
	.loc 1 202 17 discriminator 3 view .LVU250
	rorx	$28, %r12, %rax
.LVL126:
	.loc 1 203 13 is_stmt 1 discriminator 3 view .LVU251
	.loc 1 204 13 discriminator 3 view .LVU252
	.loc 1 203 17 is_stmt 0 discriminator 3 view .LVU253
	movq	-24(%rsp), %r9
.LVL127:
	.loc 1 203 17 discriminator 3 view .LVU254
	xorq	%rbp, %r9
.LVL128:
	.loc 1 204 17 discriminator 3 view .LVU255
	rorx	$54, %r9, %r9
.LVL129:
	.loc 1 205 13 is_stmt 1 discriminator 3 view .LVU256
	.loc 1 206 13 discriminator 3 view .LVU257
	.loc 1 205 17 is_stmt 0 discriminator 3 view .LVU258
	movq	8(%rsp), %r12
.LVL130:
	.loc 1 205 17 discriminator 3 view .LVU259
	xorq	%r13, %r12
.LVL131:
	.loc 1 206 17 discriminator 3 view .LVU260
	rorx	$49, %r12, %r11
.LVL132:
	.loc 1 207 13 is_stmt 1 discriminator 3 view .LVU261
	.loc 1 208 13 discriminator 3 view .LVU262
	.loc 1 207 17 is_stmt 0 discriminator 3 view .LVU263
	movq	32(%rsp), %r12
.LVL133:
	.loc 1 207 17 discriminator 3 view .LVU264
	xorq	%rdi, %r12
.LVL134:
	.loc 1 208 17 discriminator 3 view .LVU265
	rorx	$8, %r12, %rsi
.LVL135:
	.loc 1 209 13 is_stmt 1 discriminator 3 view .LVU266
	.loc 1 209 33 is_stmt 0 discriminator 3 view .LVU267
	andn	%r9, %rax, %r10
.LVL136:
	.loc 1 209 17 discriminator 3 view .LVU268
	xorq	%rcx, %r10
	movq	%r10, 32(%rsp)
.LVL137:
	.loc 1 210 13 is_stmt 1 discriminator 3 view .LVU269
	.loc 1 210 33 is_stmt 0 discriminator 3 view .LVU270
	andn	%r11, %r9, %r10
.LVL138:
	.loc 1 210 17 discriminator 3 view .LVU271
	xorq	%rax, %r10
.LVL139:
	.loc 1 211 13 is_stmt 1 discriminator 3 view .LVU272
	.loc 1 211 33 is_stmt 0 discriminator 3 view .LVU273
	andn	%rsi, %r11, %r12
.LVL140:
	.loc 1 211 17 discriminator 3 view .LVU274
	xorq	%r9, %r12
.LVL141:
	.loc 1 212 13 is_stmt 1 discriminator 3 view .LVU275
	.loc 1 212 33 is_stmt 0 discriminator 3 view .LVU276
	andn	%rcx, %rsi, %r9
.LVL142:
	.loc 1 212 17 discriminator 3 view .LVU277
	xorq	%r9, %r11
.LVL143:
	.loc 1 213 13 is_stmt 1 discriminator 3 view .LVU278
	.loc 1 213 33 is_stmt 0 discriminator 3 view .LVU279
	andn	%rax, %rcx, %rcx
.LVL144:
	.loc 1 213 17 discriminator 3 view .LVU280
	movq	%rcx, %r9
	xorq	%rsi, %r9
	movq	%r9, -24(%rsp)
.LVL145:
	.loc 1 215 13 is_stmt 1 discriminator 3 view .LVU281
	.loc 1 216 13 discriminator 3 view .LVU282
	.loc 1 215 17 is_stmt 0 discriminator 3 view .LVU283
	xorq	-96(%rsp), %r13
.LVL146:
	.loc 1 216 17 discriminator 3 view .LVU284
	rorx	$2, %r13, %r13
.LVL147:
	.loc 1 217 13 is_stmt 1 discriminator 3 view .LVU285
	.loc 1 218 13 discriminator 3 view .LVU286
	.loc 1 217 17 is_stmt 0 discriminator 3 view .LVU287
	xorq	-48(%rsp), %rdi
.LVL148:
	.loc 1 218 17 discriminator 3 view .LVU288
	rorx	$9, %rdi, %r9
.LVL149:
	.loc 1 219 13 is_stmt 1 discriminator 3 view .LVU289
	.loc 1 220 13 discriminator 3 view .LVU290
	.loc 1 219 17 is_stmt 0 discriminator 3 view .LVU291
	xorq	-8(%rsp), %r8
.LVL150:
	.loc 1 220 17 discriminator 3 view .LVU292
	rorx	$25, %r8, %r8
.LVL151:
	.loc 1 221 13 is_stmt 1 discriminator 3 view .LVU293
	.loc 1 222 13 discriminator 3 view .LVU294
	.loc 1 221 17 is_stmt 0 discriminator 3 view .LVU295
	xorq	(%rsp), %rdx
.LVL152:
	.loc 1 222 17 discriminator 3 view .LVU296
	rorx	$23, %rdx, %rdx
.LVL153:
	.loc 1 223 13 is_stmt 1 discriminator 3 view .LVU297
	.loc 1 224 13 discriminator 3 view .LVU298
	.loc 1 223 17 is_stmt 0 discriminator 3 view .LVU299
	xorq	24(%rsp), %rbp
.LVL154:
	.loc 1 224 17 discriminator 3 view .LVU300
	rorx	$62, %rbp, %rbp
.LVL155:
	.loc 1 225 13 is_stmt 1 discriminator 3 view .LVU301
	.loc 1 225 33 is_stmt 0 discriminator 3 view .LVU302
	andn	%r8, %r9, %rdi
.LVL156:
	.loc 1 225 17 discriminator 3 view .LVU303
	xorq	%r13, %rdi
.LVL157:
	.loc 1 226 13 is_stmt 1 discriminator 3 view .LVU304
	.loc 1 226 33 is_stmt 0 discriminator 3 view .LVU305
	andn	%rdx, %r8, %rax
	.loc 1 226 17 discriminator 3 view .LVU306
	xorq	%r9, %rax
	movq	%rax, 24(%rsp)
.LVL158:
	.loc 1 227 13 is_stmt 1 discriminator 3 view .LVU307
	.loc 1 227 33 is_stmt 0 discriminator 3 view .LVU308
	andn	%rbp, %rdx, %rax
.LVL159:
	.loc 1 227 17 discriminator 3 view .LVU309
	xorq	%rax, %r8
.LVL160:
	.loc 1 227 17 discriminator 3 view .LVU310
	movq	%r8, -72(%rsp)
.LVL161:
	.loc 1 228 13 is_stmt 1 discriminator 3 view .LVU311
	.loc 1 228 33 is_stmt 0 discriminator 3 view .LVU312
	andn	%r13, %rbp, %rax
	.loc 1 228 17 discriminator 3 view .LVU313
	movq	%rax, %rcx
	xorq	%rdx, %rcx
.LVL162:
	.loc 1 229 13 is_stmt 1 discriminator 3 view .LVU314
	.loc 1 229 33 is_stmt 0 discriminator 3 view .LVU315
	andn	%r9, %r13, %rsi
	.loc 1 229 17 discriminator 3 view .LVU316
	xorq	%rbp, %rsi
.LVL163:
	.loc 1 232 13 is_stmt 1 discriminator 3 view .LVU317
	.loc 1 232 17 is_stmt 0 discriminator 3 view .LVU318
	movq	-112(%rsp), %r8
.LVL164:
	.loc 1 232 17 discriminator 3 view .LVU319
	movq	%r8, %rax
	movq	%r14, (%rsp)
	xorq	%r14, %rax
	xorq	-56(%rsp), %rax
	xorq	32(%rsp), %rax
	xorq	%rdi, %rax
.LVL165:
	.loc 1 233 13 is_stmt 1 discriminator 3 view .LVU320
	.loc 1 233 22 is_stmt 0 discriminator 3 view .LVU321
	movq	40(%rsp), %r14
.LVL166:
	.loc 1 233 22 discriminator 3 view .LVU322
	xorq	%r15, %r14
	.loc 1 233 26 discriminator 3 view .LVU323
	xorq	16(%rsp), %r14
	.loc 1 233 30 discriminator 3 view .LVU324
	xorq	%r10, %r14
	.loc 1 233 17 discriminator 3 view .LVU325
	xorq	24(%rsp), %r14
.LVL167:
	.loc 1 234 13 is_stmt 1 discriminator 3 view .LVU326
	.loc 1 234 22 is_stmt 0 discriminator 3 view .LVU327
	movq	48(%rsp), %rdx
.LVL168:
	.loc 1 234 22 discriminator 3 view .LVU328
	xorq	-32(%rsp), %rdx
	.loc 1 234 26 discriminator 3 view .LVU329
	xorq	%rbx, %rdx
	.loc 1 234 30 discriminator 3 view .LVU330
	movq	%r12, 8(%rsp)
	xorq	%r12, %rdx
	.loc 1 234 17 discriminator 3 view .LVU331
	movq	%rdx, %r13
	xorq	-72(%rsp), %r13
	movq	%r13, %r12
.LVL169:
	.loc 1 235 13 is_stmt 1 discriminator 3 view .LVU332
	.loc 1 235 22 is_stmt 0 discriminator 3 view .LVU333
	movq	-64(%rsp), %r9
	xorq	64(%rsp), %r9
	.loc 1 235 26 discriminator 3 view .LVU334
	xorq	-16(%rsp), %r9
	.loc 1 235 30 discriminator 3 view .LVU335
	xorq	%r11, %r9
	.loc 1 235 17 discriminator 3 view .LVU336
	movq	%rcx, 80(%rsp)
	xorq	%rcx, %r9
.LVL170:
	.loc 1 236 13 is_stmt 1 discriminator 3 view .LVU337
	.loc 1 236 26 is_stmt 0 discriminator 3 view .LVU338
	movq	-40(%rsp), %rdx
	xorq	72(%rsp), %rdx
	movq	%rdx, %rcx
.LVL171:
	.loc 1 236 26 discriminator 3 view .LVU339
	xorq	56(%rsp), %rcx
	.loc 1 236 30 discriminator 3 view .LVU340
	xorq	-24(%rsp), %rcx
	.loc 1 236 17 discriminator 3 view .LVU341
	xorq	%rsi, %rcx
.LVL172:
	.loc 1 239 13 is_stmt 1 discriminator 3 view .LVU342
	.loc 1 239 22 is_stmt 0 discriminator 3 view .LVU343
	rorx	$63, %r14, %r13
	.loc 1 239 16 discriminator 3 view .LVU344
	xorq	%rcx, %r13
.LVL173:
	.loc 1 240 13 is_stmt 1 discriminator 3 view .LVU345
	.loc 1 240 22 is_stmt 0 discriminator 3 view .LVU346
	rorx	$63, %r12, %rbp
	.loc 1 240 16 discriminator 3 view .LVU347
	xorq	%rax, %rbp
.LVL174:
	.loc 1 241 13 is_stmt 1 discriminator 3 view .LVU348
	.loc 1 241 22 is_stmt 0 discriminator 3 view .LVU349
	rorx	$63, %r9, %rdx
	.loc 1 241 16 discriminator 3 view .LVU350
	xorq	%rdx, %r14
.LVL175:
	.loc 1 242 13 is_stmt 1 discriminator 3 view .LVU351
	.loc 1 242 22 is_stmt 0 discriminator 3 view .LVU352
	rorx	$63, %rcx, %rdx
	.loc 1 242 16 discriminator 3 view .LVU353
	xorq	%r12, %rdx
.LVL176:
	.loc 1 243 13 is_stmt 1 discriminator 3 view .LVU354
	.loc 1 243 22 is_stmt 0 discriminator 3 view .LVU355
	rorx	$63, %rax, %rax
.LVL177:
	.loc 1 243 16 discriminator 3 view .LVU356
	xorq	%rax, %r9
.LVL178:
	.loc 1 245 13 is_stmt 1 discriminator 3 view .LVU357
	.loc 1 245 17 is_stmt 0 discriminator 3 view .LVU358
	movq	%r8, %r12
.LVL179:
	.loc 1 245 17 discriminator 3 view .LVU359
	xorq	%r13, %r12
.LVL180:
	.loc 1 246 13 is_stmt 1 discriminator 3 view .LVU360
	.loc 1 247 13 discriminator 3 view .LVU361
	.loc 1 248 13 discriminator 3 view .LVU362
	.loc 1 247 17 is_stmt 0 discriminator 3 view .LVU363
	xorq	%rbp, %r15
.LVL181:
	.loc 1 248 17 discriminator 3 view .LVU364
	rorx	$20, %r15, %rax
.LVL182:
	.loc 1 249 13 is_stmt 1 discriminator 3 view .LVU365
	.loc 1 250 13 discriminator 3 view .LVU366
	.loc 1 249 17 is_stmt 0 discriminator 3 view .LVU367
	xorq	%r14, %rbx
.LVL183:
	.loc 1 250 17 discriminator 3 view .LVU368
	rorx	$21, %rbx, %rbx
.LVL184:
	.loc 1 251 13 is_stmt 1 discriminator 3 view .LVU369
	.loc 1 252 13 discriminator 3 view .LVU370
	.loc 1 251 17 is_stmt 0 discriminator 3 view .LVU371
	xorq	%rdx, %r11
.LVL185:
	.loc 1 252 17 discriminator 3 view .LVU372
	rorx	$43, %r11, %r11
.LVL186:
	.loc 1 253 13 is_stmt 1 discriminator 3 view .LVU373
	.loc 1 254 13 discriminator 3 view .LVU374
	.loc 1 253 17 is_stmt 0 discriminator 3 view .LVU375
	xorq	%r9, %rsi
.LVL187:
	.loc 1 254 17 discriminator 3 view .LVU376
	rorx	$50, %rsi, %rcx
.LVL188:
	.loc 1 255 13 is_stmt 1 discriminator 3 view .LVU377
	.loc 1 256 13 discriminator 3 view .LVU378
	.loc 1 255 33 is_stmt 0 discriminator 3 view .LVU379
	andn	%rbx, %rax, %r15
.LVL189:
	.loc 1 256 17 discriminator 3 view .LVU380
	movq	-120(%rsp), %rsi
.LVL190:
	.loc 1 256 17 discriminator 3 view .LVU381
	movq	%r12, %r8
	xorq	8(%rsi), %r8
	xorq	%r8, %r15
	movq	%r15, -112(%rsp)
.LVL191:
	.loc 1 257 13 is_stmt 1 discriminator 3 view .LVU382
	.loc 1 257 33 is_stmt 0 discriminator 3 view .LVU383
	andn	%r11, %rbx, %rsi
	.loc 1 257 17 discriminator 3 view .LVU384
	movq	%rsi, %r15
.LVL192:
	.loc 1 257 17 discriminator 3 view .LVU385
	xorq	%rax, %r15
	movq	%r15, -104(%rsp)
.LVL193:
	.loc 1 258 13 is_stmt 1 discriminator 3 view .LVU386
	.loc 1 258 33 is_stmt 0 discriminator 3 view .LVU387
	andn	%rcx, %r11, %rsi
	.loc 1 258 17 discriminator 3 view .LVU388
	movq	%rsi, %r8
	xorq	%rbx, %r8
	movq	%r8, -96(%rsp)
.LVL194:
	.loc 1 259 13 is_stmt 1 discriminator 3 view .LVU389
	.loc 1 259 33 is_stmt 0 discriminator 3 view .LVU390
	andn	%r12, %rcx, %rsi
	.loc 1 259 17 discriminator 3 view .LVU391
	movq	%rsi, %r15
.LVL195:
	.loc 1 259 17 discriminator 3 view .LVU392
	xorq	%r11, %r15
	movq	%r15, -88(%rsp)
.LVL196:
	.loc 1 260 13 is_stmt 1 discriminator 3 view .LVU393
	.loc 1 260 33 is_stmt 0 discriminator 3 view .LVU394
	andn	%rax, %r12, %rax
.LVL197:
	.loc 1 260 17 discriminator 3 view .LVU395
	movq	%rax, %r8
.LVL198:
	.loc 1 260 17 discriminator 3 view .LVU396
	xorq	%rcx, %r8
	movq	%r8, -80(%rsp)
.LVL199:
	.loc 1 262 13 is_stmt 1 discriminator 3 view .LVU397
	.loc 1 263 13 discriminator 3 view .LVU398
	.loc 1 262 17 is_stmt 0 discriminator 3 view .LVU399
	movq	-64(%rsp), %rbx
.LVL200:
	.loc 1 262 17 discriminator 3 view .LVU400
	xorq	%rdx, %rbx
.LVL201:
	.loc 1 263 17 discriminator 3 view .LVU401
	rorx	$36, %rbx, %rbx
.LVL202:
	.loc 1 264 13 is_stmt 1 discriminator 3 view .LVU402
	.loc 1 265 13 discriminator 3 view .LVU403
	.loc 1 264 17 is_stmt 0 discriminator 3 view .LVU404
	movq	-40(%rsp), %r11
.LVL203:
	.loc 1 264 17 discriminator 3 view .LVU405
	xorq	%r9, %r11
.LVL204:
	.loc 1 265 17 discriminator 3 view .LVU406
	rorx	$44, %r11, %r11
.LVL205:
	.loc 1 266 13 is_stmt 1 discriminator 3 view .LVU407
	.loc 1 267 13 discriminator 3 view .LVU408
	.loc 1 266 17 is_stmt 0 discriminator 3 view .LVU409
	movq	-56(%rsp), %r12
.LVL206:
	.loc 1 266 17 discriminator 3 view .LVU410
	xorq	%r13, %r12
.LVL207:
	.loc 1 267 17 discriminator 3 view .LVU411
	rorx	$61, %r12, %r12
.LVL208:
	.loc 1 268 13 is_stmt 1 discriminator 3 view .LVU412
	.loc 1 269 13 discriminator 3 view .LVU413
	.loc 1 268 17 is_stmt 0 discriminator 3 view .LVU414
	xorq	%rbp, %r10
.LVL209:
	.loc 1 269 17 discriminator 3 view .LVU415
	rorx	$19, %r10, %r10
.LVL210:
	.loc 1 270 13 is_stmt 1 discriminator 3 view .LVU416
	.loc 1 271 13 discriminator 3 view .LVU417
	.loc 1 270 17 is_stmt 0 discriminator 3 view .LVU418
	movq	-72(%rsp), %r8
.LVL211:
	.loc 1 270 17 discriminator 3 view .LVU419
	xorq	%r14, %r8
.LVL212:
	.loc 1 271 17 discriminator 3 view .LVU420
	rorx	$3, %r8, %r8
.LVL213:
	.loc 1 272 13 is_stmt 1 discriminator 3 view .LVU421
	.loc 1 272 33 is_stmt 0 discriminator 3 view .LVU422
	andn	%r12, %r11, %rax
	.loc 1 272 17 discriminator 3 view .LVU423
	movq	%rax, %r15
.LVL214:
	.loc 1 272 17 discriminator 3 view .LVU424
	xorq	%rbx, %r15
	movq	%r15, -72(%rsp)
.LVL215:
	.loc 1 273 13 is_stmt 1 discriminator 3 view .LVU425
	.loc 1 273 33 is_stmt 0 discriminator 3 view .LVU426
	andn	%r10, %r12, %r15
.LVL216:
	.loc 1 273 17 discriminator 3 view .LVU427
	xorq	%r11, %r15
	movq	%r15, -64(%rsp)
.LVL217:
	.loc 1 274 13 is_stmt 1 discriminator 3 view .LVU428
	.loc 1 274 33 is_stmt 0 discriminator 3 view .LVU429
	andn	%r8, %r10, %rax
	.loc 1 274 17 discriminator 3 view .LVU430
	movq	%rax, %r15
.LVL218:
	.loc 1 274 17 discriminator 3 view .LVU431
	xorq	%r12, %r15
	movq	%r15, -56(%rsp)
.LVL219:
	.loc 1 275 13 is_stmt 1 discriminator 3 view .LVU432
	.loc 1 275 33 is_stmt 0 discriminator 3 view .LVU433
	andn	%rbx, %r8, %rsi
	.loc 1 275 17 discriminator 3 view .LVU434
	movq	%rsi, %r15
.LVL220:
	.loc 1 275 17 discriminator 3 view .LVU435
	xorq	%r10, %r15
	movq	%r15, -48(%rsp)
.LVL221:
	.loc 1 276 13 is_stmt 1 discriminator 3 view .LVU436
	.loc 1 276 33 is_stmt 0 discriminator 3 view .LVU437
	andn	%r11, %rbx, %rbx
.LVL222:
	.loc 1 276 17 discriminator 3 view .LVU438
	movq	%rbx, %r15
.LVL223:
	.loc 1 276 17 discriminator 3 view .LVU439
	xorq	%r8, %r15
	movq	%r15, -40(%rsp)
.LVL224:
	.loc 1 278 13 is_stmt 1 discriminator 3 view .LVU440
	.loc 1 279 13 discriminator 3 view .LVU441
	.loc 1 278 17 is_stmt 0 discriminator 3 view .LVU442
	movq	40(%rsp), %rcx
	xorq	%rbp, %rcx
.LVL225:
	.loc 1 279 17 discriminator 3 view .LVU443
	rorx	$63, %rcx, %rsi
.LVL226:
	.loc 1 280 13 is_stmt 1 discriminator 3 view .LVU444
	.loc 1 281 13 discriminator 3 view .LVU445
	.loc 1 280 17 is_stmt 0 discriminator 3 view .LVU446
	movq	-32(%rsp), %rbx
	xorq	%r14, %rbx
.LVL227:
	.loc 1 281 17 discriminator 3 view .LVU447
	rorx	$58, %rbx, %rax
.LVL228:
	.loc 1 282 13 is_stmt 1 discriminator 3 view .LVU448
	.loc 1 283 13 discriminator 3 view .LVU449
	.loc 1 282 17 is_stmt 0 discriminator 3 view .LVU450
	movq	-16(%rsp), %rbx
.LVL229:
	.loc 1 282 17 discriminator 3 view .LVU451
	xorq	%rdx, %rbx
.LVL230:
	.loc 1 283 17 discriminator 3 view .LVU452
	rorx	$39, %rbx, %r11
.LVL231:
	.loc 1 284 13 is_stmt 1 discriminator 3 view .LVU453
	.loc 1 285 13 discriminator 3 view .LVU454
	.loc 1 284 17 is_stmt 0 discriminator 3 view .LVU455
	movq	-24(%rsp), %r10
.LVL232:
	.loc 1 284 17 discriminator 3 view .LVU456
	xorq	%r9, %r10
.LVL233:
	.loc 1 285 17 discriminator 3 view .LVU457
	rorx	$56, %r10, %r10
.LVL234:
	.loc 1 286 13 is_stmt 1 discriminator 3 view .LVU458
	.loc 1 287 13 discriminator 3 view .LVU459
	.loc 1 286 17 is_stmt 0 discriminator 3 view .LVU460
	xorq	%r13, %rdi
.LVL235:
	.loc 1 287 17 discriminator 3 view .LVU461
	rorx	$46, %rdi, %r8
.LVL236:
	.loc 1 288 13 is_stmt 1 discriminator 3 view .LVU462
	.loc 1 288 33 is_stmt 0 discriminator 3 view .LVU463
	andn	%r11, %rax, %rcx
.LVL237:
	.loc 1 288 17 discriminator 3 view .LVU464
	movq	%rcx, %rbx
.LVL238:
	.loc 1 288 17 discriminator 3 view .LVU465
	xorq	%rsi, %rbx
	movq	%rbx, -32(%rsp)
.LVL239:
	.loc 1 289 13 is_stmt 1 discriminator 3 view .LVU466
	.loc 1 289 33 is_stmt 0 discriminator 3 view .LVU467
	andn	%r10, %r11, %rcx
	.loc 1 289 17 discriminator 3 view .LVU468
	movq	%rcx, %rbx
.LVL240:
	.loc 1 289 17 discriminator 3 view .LVU469
	xorq	%rax, %rbx
	movq	%rbx, -24(%rsp)
.LVL241:
	.loc 1 290 13 is_stmt 1 discriminator 3 view .LVU470
	.loc 1 290 33 is_stmt 0 discriminator 3 view .LVU471
	andn	%r8, %r10, %rbx
.LVL242:
	.loc 1 290 17 discriminator 3 view .LVU472
	xorq	%r11, %rbx
.LVL243:
	.loc 1 291 13 is_stmt 1 discriminator 3 view .LVU473
	.loc 1 291 33 is_stmt 0 discriminator 3 view .LVU474
	andn	%rsi, %r8, %rcx
	.loc 1 291 17 discriminator 3 view .LVU475
	movq	%rcx, %r15
.LVL244:
	.loc 1 291 17 discriminator 3 view .LVU476
	xorq	%r10, %r15
	movq	%r15, -16(%rsp)
.LVL245:
	.loc 1 292 13 is_stmt 1 discriminator 3 view .LVU477
	.loc 1 292 33 is_stmt 0 discriminator 3 view .LVU478
	andn	%rax, %rsi, %rsi
.LVL246:
	.loc 1 292 17 discriminator 3 view .LVU479
	movq	%rsi, %r15
.LVL247:
	.loc 1 292 17 discriminator 3 view .LVU480
	xorq	%r8, %r15
	movq	%r15, -8(%rsp)
.LVL248:
	.loc 1 294 13 is_stmt 1 discriminator 3 view .LVU481
	.loc 1 295 13 discriminator 3 view .LVU482
	.loc 1 294 17 is_stmt 0 discriminator 3 view .LVU483
	movq	56(%rsp), %rax
.LVL249:
	.loc 1 294 17 discriminator 3 view .LVU484
	xorq	%r9, %rax
.LVL250:
	.loc 1 295 17 discriminator 3 view .LVU485
	rorx	$37, %rax, %rsi
.LVL251:
	.loc 1 296 13 is_stmt 1 discriminator 3 view .LVU486
	.loc 1 297 13 discriminator 3 view .LVU487
	.loc 1 296 17 is_stmt 0 discriminator 3 view .LVU488
	movq	(%rsp), %rax
.LVL252:
	.loc 1 296 17 discriminator 3 view .LVU489
	xorq	%r13, %rax
.LVL253:
	.loc 1 297 17 discriminator 3 view .LVU490
	rorx	$28, %rax, %rdi
.LVL254:
	.loc 1 298 13 is_stmt 1 discriminator 3 view .LVU491
	.loc 1 299 13 discriminator 3 view .LVU492
	.loc 1 298 17 is_stmt 0 discriminator 3 view .LVU493
	movq	16(%rsp), %r11
.LVL255:
	.loc 1 298 17 discriminator 3 view .LVU494
	xorq	%rbp, %r11
.LVL256:
	.loc 1 299 17 discriminator 3 view .LVU495
	rorx	$54, %r11, %r11
.LVL257:
	.loc 1 300 13 is_stmt 1 discriminator 3 view .LVU496
	.loc 1 301 13 discriminator 3 view .LVU497
	.loc 1 300 17 is_stmt 0 discriminator 3 view .LVU498
	movq	8(%rsp), %r12
	xorq	%r14, %r12
.LVL258:
	.loc 1 301 17 discriminator 3 view .LVU499
	rorx	$49, %r12, %rax
.LVL259:
	.loc 1 302 13 is_stmt 1 discriminator 3 view .LVU500
	.loc 1 303 13 discriminator 3 view .LVU501
	.loc 1 302 17 is_stmt 0 discriminator 3 view .LVU502
	movq	80(%rsp), %rcx
	xorq	%rdx, %rcx
.LVL260:
	.loc 1 303 17 discriminator 3 view .LVU503
	rorx	$8, %rcx, %rcx
.LVL261:
	.loc 1 304 13 is_stmt 1 discriminator 3 view .LVU504
	.loc 1 304 33 is_stmt 0 discriminator 3 view .LVU505
	andn	%r11, %rdi, %r8
	.loc 1 304 17 discriminator 3 view .LVU506
	xorq	%rsi, %r8
	movq	%r8, (%rsp)
.LVL262:
	.loc 1 305 13 is_stmt 1 discriminator 3 view .LVU507
	.loc 1 305 33 is_stmt 0 discriminator 3 view .LVU508
	andn	%rax, %r11, %r12
.LVL263:
	.loc 1 305 17 discriminator 3 view .LVU509
	xorq	%rdi, %r12
.LVL264:
	.loc 1 306 13 is_stmt 1 discriminator 3 view .LVU510
	.loc 1 306 33 is_stmt 0 discriminator 3 view .LVU511
	andn	%rcx, %rax, %r8
.LVL265:
	.loc 1 306 17 discriminator 3 view .LVU512
	xorq	%r11, %r8
	movq	%r8, 8(%rsp)
.LVL266:
	.loc 1 307 13 is_stmt 1 discriminator 3 view .LVU513
	.loc 1 307 33 is_stmt 0 discriminator 3 view .LVU514
	andn	%rsi, %rcx, %r8
.LVL267:
	.loc 1 307 17 discriminator 3 view .LVU515
	xorq	%r8, %rax
.LVL268:
	.loc 1 308 13 is_stmt 1 discriminator 3 view .LVU516
	.loc 1 308 33 is_stmt 0 discriminator 3 view .LVU517
	andn	%rdi, %rsi, %rsi
.LVL269:
	.loc 1 308 17 discriminator 3 view .LVU518
	movq	%rsi, %r8
	xorq	%rcx, %r8
	movq	%r8, 16(%rsp)
.LVL270:
	.loc 1 310 13 is_stmt 1 discriminator 3 view .LVU519
	.loc 1 311 13 discriminator 3 view .LVU520
	.loc 1 310 17 is_stmt 0 discriminator 3 view .LVU521
	xorq	48(%rsp), %r14
.LVL271:
	.loc 1 311 17 discriminator 3 view .LVU522
	rorx	$2, %r14, %r14
.LVL272:
	.loc 1 312 13 is_stmt 1 discriminator 3 view .LVU523
	.loc 1 313 13 discriminator 3 view .LVU524
	.loc 1 312 17 is_stmt 0 discriminator 3 view .LVU525
	xorq	64(%rsp), %rdx
.LVL273:
	.loc 1 313 17 discriminator 3 view .LVU526
	rorx	$9, %rdx, %rdx
.LVL274:
	.loc 1 314 13 is_stmt 1 discriminator 3 view .LVU527
	.loc 1 315 13 discriminator 3 view .LVU528
	.loc 1 314 17 is_stmt 0 discriminator 3 view .LVU529
	xorq	72(%rsp), %r9
.LVL275:
	.loc 1 315 17 discriminator 3 view .LVU530
	rorx	$25, %r9, %r9
.LVL276:
	.loc 1 316 13 is_stmt 1 discriminator 3 view .LVU531
	.loc 1 317 13 discriminator 3 view .LVU532
	.loc 1 316 17 is_stmt 0 discriminator 3 view .LVU533
	xorq	32(%rsp), %r13
.LVL277:
	.loc 1 317 17 discriminator 3 view .LVU534
	rorx	$23, %r13, %rsi
.LVL278:
	.loc 1 318 13 is_stmt 1 discriminator 3 view .LVU535
	.loc 1 319 13 discriminator 3 view .LVU536
	.loc 1 318 17 is_stmt 0 discriminator 3 view .LVU537
	xorq	24(%rsp), %rbp
.LVL279:
	.loc 1 319 17 discriminator 3 view .LVU538
	rorx	$62, %rbp, %rdi
.LVL280:
	.loc 1 320 13 is_stmt 1 discriminator 3 view .LVU539
	.loc 1 320 33 is_stmt 0 discriminator 3 view .LVU540
	andn	%r9, %rdx, %r10
	.loc 1 320 17 discriminator 3 view .LVU541
	xorq	%r14, %r10
.LVL281:
	.loc 1 321 13 is_stmt 1 discriminator 3 view .LVU542
	.loc 1 321 33 is_stmt 0 discriminator 3 view .LVU543
	andn	%rsi, %r9, %rbp
.LVL282:
	.loc 1 321 17 discriminator 3 view .LVU544
	xorq	%rdx, %rbp
	movq	%rbp, 24(%rsp)
.LVL283:
	.loc 1 322 13 is_stmt 1 discriminator 3 view .LVU545
	.loc 1 322 33 is_stmt 0 discriminator 3 view .LVU546
	andn	%rdi, %rsi, %rcx
	.loc 1 322 17 discriminator 3 view .LVU547
	xorq	%rcx, %r9
.LVL284:
	.loc 1 323 13 is_stmt 1 discriminator 3 view .LVU548
	.loc 1 323 33 is_stmt 0 discriminator 3 view .LVU549
	andn	%r14, %rdi, %r13
.LVL285:
	.loc 1 323 17 discriminator 3 view .LVU550
	xorq	%rsi, %r13
	movq	%r13, 32(%rsp)
.LVL286:
	.loc 1 324 13 is_stmt 1 discriminator 3 view .LVU551
	.loc 1 324 33 is_stmt 0 discriminator 3 view .LVU552
	andn	%rdx, %r14, %r11
	.loc 1 324 17 discriminator 3 view .LVU553
	xorq	%rdi, %r11
.LVL287:
	.loc 1 134 42 is_stmt 1 discriminator 3 view .LVU554
	.loc 1 134 25 discriminator 3 view .LVU555
	addq	$16, -120(%rsp)
	movq	-120(%rsp), %rsi
.LVL288:
	.loc 1 134 9 is_stmt 0 discriminator 3 view .LVU556
	leaq	192+KeccakF_RoundConstants(%rip), %rdi
.LVL289:
	.loc 1 134 9 discriminator 3 view .LVU557
	cmpq	%rsi, %rdi
	jne	.L2
	movq	%r10, %rcx
	movq	%rax, %r10
.LVL290:
	.loc 1 328 9 is_stmt 1 view .LVU558
	.loc 1 328 19 is_stmt 0 view .LVU559
	movq	88(%rsp), %rax
.LVL291:
	.loc 1 328 19 view .LVU560
	movq	-112(%rsp), %rdx
.LVL292:
	.loc 1 328 19 view .LVU561
	movq	%rdx, (%rax)
	.loc 1 329 9 is_stmt 1 view .LVU562
	.loc 1 329 19 is_stmt 0 view .LVU563
	movq	-104(%rsp), %rdi
	movq	%rdi, 8(%rax)
	.loc 1 330 9 is_stmt 1 view .LVU564
	.loc 1 330 19 is_stmt 0 view .LVU565
	movq	-96(%rsp), %rdx
	movq	%rdx, 16(%rax)
	.loc 1 331 9 is_stmt 1 view .LVU566
	.loc 1 331 19 is_stmt 0 view .LVU567
	movq	-88(%rsp), %rdi
	movq	%rdi, 24(%rax)
	.loc 1 332 9 is_stmt 1 view .LVU568
	.loc 1 332 19 is_stmt 0 view .LVU569
	movq	-80(%rsp), %rdx
	movq	%rdx, 32(%rax)
	.loc 1 333 9 is_stmt 1 view .LVU570
	.loc 1 333 19 is_stmt 0 view .LVU571
	movq	-72(%rsp), %rdi
	movq	%rdi, 40(%rax)
	.loc 1 334 9 is_stmt 1 view .LVU572
	.loc 1 334 19 is_stmt 0 view .LVU573
	movq	-64(%rsp), %rdx
	movq	%rdx, 48(%rax)
	.loc 1 335 9 is_stmt 1 view .LVU574
	.loc 1 335 19 is_stmt 0 view .LVU575
	movq	-56(%rsp), %rdi
	movq	%rdi, 56(%rax)
	.loc 1 336 9 is_stmt 1 view .LVU576
	.loc 1 336 19 is_stmt 0 view .LVU577
	movq	-48(%rsp), %rdx
	movq	%rdx, 64(%rax)
	.loc 1 337 9 is_stmt 1 view .LVU578
	.loc 1 337 19 is_stmt 0 view .LVU579
	movq	-40(%rsp), %rdi
	movq	%rdi, 72(%rax)
	.loc 1 338 9 is_stmt 1 view .LVU580
	.loc 1 338 19 is_stmt 0 view .LVU581
	movq	-32(%rsp), %rdx
	movq	%rdx, 80(%rax)
	.loc 1 339 9 is_stmt 1 view .LVU582
	.loc 1 339 19 is_stmt 0 view .LVU583
	movq	-24(%rsp), %rdi
	movq	%rdi, 88(%rax)
	.loc 1 340 9 is_stmt 1 view .LVU584
	.loc 1 340 19 is_stmt 0 view .LVU585
	movq	%rbx, 96(%rax)
	.loc 1 341 9 is_stmt 1 view .LVU586
	.loc 1 341 19 is_stmt 0 view .LVU587
	movq	-16(%rsp), %rdx
	movq	%rdx, 104(%rax)
	.loc 1 342 9 is_stmt 1 view .LVU588
	.loc 1 342 19 is_stmt 0 view .LVU589
	movq	%r15, 112(%rax)
	.loc 1 343 9 is_stmt 1 view .LVU590
	.loc 1 343 19 is_stmt 0 view .LVU591
	movq	(%rsp), %rdx
	movq	%rdx, 120(%rax)
	.loc 1 344 9 is_stmt 1 view .LVU592
	.loc 1 344 19 is_stmt 0 view .LVU593
	movq	%r12, 128(%rax)
	.loc 1 345 9 is_stmt 1 view .LVU594
	.loc 1 345 19 is_stmt 0 view .LVU595
	movq	8(%rsp), %rdi
	movq	%rdi, 136(%rax)
	.loc 1 346 9 is_stmt 1 view .LVU596
	.loc 1 346 19 is_stmt 0 view .LVU597
	movq	%r10, 144(%rax)
	.loc 1 347 9 is_stmt 1 view .LVU598
	.loc 1 347 19 is_stmt 0 view .LVU599
	movq	%r8, 152(%rax)
	.loc 1 348 9 is_stmt 1 view .LVU600
	.loc 1 348 19 is_stmt 0 view .LVU601
	movq	%rcx, 160(%rax)
	.loc 1 349 9 is_stmt 1 view .LVU602
	.loc 1 349 19 is_stmt 0 view .LVU603
	movq	%rbp, 168(%rax)
	.loc 1 350 9 is_stmt 1 view .LVU604
	.loc 1 350 19 is_stmt 0 view .LVU605
	movq	%r9, 176(%rax)
	.loc 1 351 9 is_stmt 1 view .LVU606
	.loc 1 351 19 is_stmt 0 view .LVU607
	movq	%r13, 184(%rax)
	.loc 1 352 9 is_stmt 1 view .LVU608
	.loc 1 352 19 is_stmt 0 view .LVU609
	movq	%r11, 192(%rax)
	.loc 1 353 1 view .LVU610
	addq	$96, %rsp
	.cfi_def_cfa_offset 56
.LVL293:
	.loc 1 353 1 view .LVU611
	popq	%rbx
	.cfi_def_cfa_offset 48
.LVL294:
	.loc 1 353 1 view .LVU612
	popq	%rbp
	.cfi_def_cfa_offset 40
.LVL295:
	.loc 1 353 1 view .LVU613
	popq	%r12
	.cfi_def_cfa_offset 32
.LVL296:
	.loc 1 353 1 view .LVU614
	popq	%r13
	.cfi_def_cfa_offset 24
.LVL297:
	.loc 1 353 1 view .LVU615
	popq	%r14
	.cfi_def_cfa_offset 16
.LVL298:
	.loc 1 353 1 view .LVU616
	popq	%r15
	.cfi_def_cfa_offset 8
.LVL299:
	.loc 1 353 1 view .LVU617
	ret
	.cfi_endproc
.LFE4:
	.size	KeccakF1600_StatePermute, .-KeccakF1600_StatePermute
	.type	keccak_squeezeblocks, @function
keccak_squeezeblocks:
.LVL300:
.LFB6:
	.loc 1 420 1 is_stmt 1 view -0
	.cfi_startproc
	.loc 1 421 3 view .LVU619
	.loc 1 422 17 view .LVU620
	.loc 1 424 3 view .LVU621
	.loc 1 424 8 view .LVU622
	testq	%rsi, %rsi
	je	.L15
	.loc 1 420 1 is_stmt 0 view .LVU623
	pushq	%r15
	.cfi_def_cfa_offset 16
	.cfi_offset 15, -16
	pushq	%r14
	.cfi_def_cfa_offset 24
	.cfi_offset 14, -24
	pushq	%r13
	.cfi_def_cfa_offset 32
	.cfi_offset 13, -32
	pushq	%r12
	.cfi_def_cfa_offset 40
	.cfi_offset 12, -40
	pushq	%rbp
	.cfi_def_cfa_offset 48
	.cfi_offset 6, -48
	pushq	%rbx
	.cfi_def_cfa_offset 56
	.cfi_offset 3, -56
	movq	%rdi, %rbx
	movq	%rsi, %r13
	movq	%rdx, %rbp
	.loc 1 426 21 view .LVU624
	movl	%ecx, %r15d
	shrl	$3, %r15d
	leal	-1(%r15), %eax
	leaq	8(,%rax,8), %r12
	.loc 1 429 7 view .LVU625
	movl	%ecx, %r14d
	jmp	.L10
.LVL301:
.L18:
	.loc 1 426 28 is_stmt 1 discriminator 3 view .LVU626
	.loc 1 426 14 discriminator 3 view .LVU627
	addq	$8, %rdx
	.loc 1 426 5 is_stmt 0 discriminator 3 view .LVU628
	cmpq	%rdx, %r12
	je	.L7
.L9:
	.loc 1 427 7 is_stmt 1 discriminator 3 view .LVU629
	movq	0(%rbp,%rdx), %rdi
.LVL302:
.LBB4:
.LBI4:
	.loc 1 48 13 discriminator 3 view .LVU630
.LBB5:
	.loc 1 49 3 discriminator 3 view .LVU631
	.loc 1 51 3 discriminator 3 view .LVU632
	.loc 1 51 14 discriminator 3 view .LVU633
	leaq	(%rbx,%rdx), %rcx
.LVL303:
	.loc 1 51 14 is_stmt 0 discriminator 3 view .LVU634
.LBE5:
.LBE4:
	.loc 1 427 7 discriminator 3 view .LVU635
	movl	$0, %eax
.LVL304:
.L8:
.LBB7:
.LBB6:
	.loc 1 52 5 is_stmt 1 view .LVU636
	.loc 1 52 14 is_stmt 0 view .LVU637
	shrx	%rax, %rdi, %rsi
	.loc 1 52 10 view .LVU638
	movb	%sil, (%rcx)
	.loc 1 51 21 is_stmt 1 view .LVU639
.LVL305:
	.loc 1 51 14 view .LVU640
	addl	$8, %eax
	incq	%rcx
.LVL306:
	.loc 1 51 3 is_stmt 0 view .LVU641
	cmpl	$64, %eax
	jne	.L8
	jmp	.L18
.LVL307:
.L7:
	.loc 1 51 3 view .LVU642
.LBE6:
.LBE7:
	.loc 1 429 5 is_stmt 1 view .LVU643
	.loc 1 429 7 is_stmt 0 view .LVU644
	addq	%r14, %rbx
.LVL308:
	.loc 1 430 5 is_stmt 1 view .LVU645
	.loc 1 424 8 view .LVU646
	decq	%r13
.LVL309:
	.loc 1 424 8 is_stmt 0 view .LVU647
	je	.L19
.LVL310:
.L10:
	.loc 1 425 5 is_stmt 1 view .LVU648
	movq	%rbp, %rdi
	call	KeccakF1600_StatePermute
.LVL311:
	.loc 1 426 5 view .LVU649
	.loc 1 426 14 view .LVU650
	.loc 1 426 5 is_stmt 0 view .LVU651
	testl	%r15d, %r15d
	je	.L7
	movl	$0, %edx
	jmp	.L9
.LVL312:
.L19:
	.loc 1 434 1 view .LVU652
	popq	%rbx
	.cfi_def_cfa_offset 48
.LVL313:
	.loc 1 434 1 view .LVU653
	popq	%rbp
	.cfi_def_cfa_offset 40
.LVL314:
	.loc 1 434 1 view .LVU654
	popq	%r12
	.cfi_def_cfa_offset 32
	popq	%r13
	.cfi_def_cfa_offset 24
.LVL315:
	.loc 1 434 1 view .LVU655
	popq	%r14
	.cfi_def_cfa_offset 16
.LVL316:
	.loc 1 434 1 view .LVU656
	popq	%r15
	.cfi_def_cfa_offset 8
	ret
.LVL317:
.L15:
	.cfi_restore 3
	.cfi_restore 6
	.cfi_restore 12
	.cfi_restore 13
	.cfi_restore 14
	.cfi_restore 15
	.loc 1 434 1 view .LVU657
	ret
	.cfi_endproc
.LFE6:
	.size	keccak_squeezeblocks, .-keccak_squeezeblocks
	.type	keccak_absorb, @function
keccak_absorb:
.LVL318:
.LFB5:
	.loc 1 373 1 is_stmt 1 view -0
	.cfi_startproc
	.loc 1 373 1 is_stmt 0 view .LVU659
	pushq	%r15
	.cfi_def_cfa_offset 16
	.cfi_offset 15, -16
	pushq	%r14
	.cfi_def_cfa_offset 24
	.cfi_offset 14, -24
	pushq	%r13
	.cfi_def_cfa_offset 32
	.cfi_offset 13, -32
	pushq	%r12
	.cfi_def_cfa_offset 40
	.cfi_offset 12, -40
	pushq	%rbp
	.cfi_def_cfa_offset 48
	.cfi_offset 6, -48
	pushq	%rbx
	.cfi_def_cfa_offset 56
	.cfi_offset 3, -56
	subq	$232, %rsp
	.cfi_def_cfa_offset 288
	movq	%rdi, %rbx
	movl	%esi, %r15d
	movq	%rdx, %rbp
	movq	%rcx, %r13
	movl	%r8d, 12(%rsp)
	.loc 1 373 1 view .LVU660
	movq	%fs:40, %rax
	movq	%rax, 216(%rsp)
	xorl	%eax, %eax
	.loc 1 374 3 is_stmt 1 view .LVU661
	.loc 1 375 3 view .LVU662
	.loc 1 376 17 view .LVU663
	.loc 1 379 3 view .LVU664
.LVL319:
	.loc 1 379 14 view .LVU665
	movq	%rdi, %rax
	leaq	200(%rdi), %rdx
.LVL320:
.L21:
	.loc 1 380 5 discriminator 3 view .LVU666
	.loc 1 380 10 is_stmt 0 discriminator 3 view .LVU667
	movq	$0, (%rax)
	.loc 1 379 22 is_stmt 1 discriminator 3 view .LVU668
	.loc 1 379 14 discriminator 3 view .LVU669
	addq	$8, %rax
	.loc 1 379 3 is_stmt 0 discriminator 3 view .LVU670
	cmpq	%rdx, %rax
	jne	.L21
	.loc 1 382 8 is_stmt 1 view .LVU671
	.loc 1 382 14 is_stmt 0 view .LVU672
	movl	%r15d, %r14d
	.loc 1 382 8 view .LVU673
	cmpq	%r14, %r13
	jb	.L22
	.loc 1 383 21 view .LVU674
	movl	%r15d, %r12d
	shrl	$3, %r12d
	jmp	.L23
.LVL321:
.L47:
.LBB12:
.LBB13:
	.loc 1 37 3 is_stmt 1 view .LVU675
	.loc 1 37 3 is_stmt 0 view .LVU676
.LBE13:
.LBE12:
	.loc 1 384 12 view .LVU677
	xorq	%rdi, (%rbx,%rdx)
	.loc 1 383 25 is_stmt 1 view .LVU678
	incl	%r8d
.LVL322:
	.loc 1 383 16 view .LVU679
	addq	$8, %rdx
	.loc 1 383 5 is_stmt 0 view .LVU680
	cmpl	%r12d, %r8d
	jnb	.L26
.LVL323:
.L25:
	.loc 1 384 7 is_stmt 1 discriminator 3 view .LVU681
.LBB17:
.LBI12:
	.loc 1 30 17 discriminator 3 view .LVU682
.LBB14:
	.loc 1 31 3 discriminator 3 view .LVU683
	.loc 1 32 3 discriminator 3 view .LVU684
	.loc 1 34 3 discriminator 3 view .LVU685
	.loc 1 34 15 discriminator 3 view .LVU686
	leaq	0(%rbp,%rdx), %rsi
.LVL324:
	.loc 1 34 15 is_stmt 0 discriminator 3 view .LVU687
.LBE14:
.LBE17:
	.loc 1 383 11 discriminator 3 view .LVU688
	movl	$0, %eax
.LBB18:
.LBB15:
	.loc 1 32 12 discriminator 3 view .LVU689
	movl	$0, %edi
.LVL325:
.L24:
	.loc 1 35 5 is_stmt 1 view .LVU690
	.loc 1 35 10 is_stmt 0 view .LVU691
	movzbl	(%rsi), %ecx
	.loc 1 35 25 view .LVU692
	shlx	%rax, %rcx, %rcx
	.loc 1 35 7 view .LVU693
	orq	%rcx, %rdi
.LVL326:
	.loc 1 34 22 is_stmt 1 view .LVU694
	.loc 1 34 15 view .LVU695
	incq	%rsi
.LVL327:
	.loc 1 34 15 is_stmt 0 view .LVU696
	addl	$8, %eax
	.loc 1 34 3 view .LVU697
	cmpl	$64, %eax
	jne	.L24
	jmp	.L47
.LVL328:
.L26:
	.loc 1 34 3 view .LVU698
.LBE15:
.LBE18:
	.loc 1 386 5 is_stmt 1 view .LVU699
	movq	%rbx, %rdi
	call	KeccakF1600_StatePermute
.LVL329:
	.loc 1 387 5 view .LVU700
	.loc 1 387 10 is_stmt 0 view .LVU701
	subq	%r14, %r13
.LVL330:
	.loc 1 388 5 is_stmt 1 view .LVU702
	.loc 1 388 7 is_stmt 0 view .LVU703
	addq	%r14, %rbp
.LVL331:
	.loc 1 382 8 is_stmt 1 view .LVU704
	cmpq	%r14, %r13
	jb	.L22
.L23:
.LVL332:
	.loc 1 383 16 view .LVU705
	.loc 1 383 5 is_stmt 0 view .LVU706
	movl	$0, %edx
	.loc 1 383 11 view .LVU707
	movl	$0, %r8d
	.loc 1 383 5 view .LVU708
	cmpl	$7, %r15d
	ja	.L25
	.loc 1 383 5 view .LVU709
	jmp	.L26
.LVL333:
.L22:
	.loc 1 391 14 is_stmt 1 view .LVU710
	.loc 1 391 3 is_stmt 0 view .LVU711
	testl	%r15d, %r15d
	je	.L27
	leaq	16(%rsp), %rax
	leal	-1(%r15), %edx
	leaq	17(%rsp,%rdx), %rdx
.LVL334:
.L28:
	.loc 1 392 5 is_stmt 1 discriminator 3 view .LVU712
	.loc 1 392 10 is_stmt 0 discriminator 3 view .LVU713
	movb	$0, (%rax)
	.loc 1 391 21 is_stmt 1 discriminator 3 view .LVU714
.LVL335:
	.loc 1 391 14 discriminator 3 view .LVU715
	incq	%rax
.LVL336:
	.loc 1 391 3 is_stmt 0 discriminator 3 view .LVU716
	cmpq	%rax, %rdx
	jne	.L28
.LVL337:
	.loc 1 393 14 is_stmt 1 view .LVU717
	.loc 1 393 3 is_stmt 0 view .LVU718
	testq	%r13, %r13
	je	.L37
.L34:
.LBB19:
.LBB16:
	.loc 1 32 12 view .LVU719
	movl	$0, %eax
.LVL338:
.L30:
	.loc 1 32 12 view .LVU720
.LBE16:
.LBE19:
	.loc 1 394 5 is_stmt 1 discriminator 3 view .LVU721
	.loc 1 394 10 is_stmt 0 discriminator 3 view .LVU722
	movzbl	0(%rbp,%rax), %edx
	movb	%dl, 16(%rsp,%rax)
	.loc 1 393 24 is_stmt 1 discriminator 3 view .LVU723
.LVL339:
	.loc 1 393 14 discriminator 3 view .LVU724
	incq	%rax
.LVL340:
	.loc 1 393 3 is_stmt 0 discriminator 3 view .LVU725
	cmpq	%r13, %rax
	jb	.L30
	.loc 1 393 3 discriminator 3 view .LVU726
	testq	%r13, %r13
	movl	$1, %eax
	cmovne	%r13d, %eax
.L29:
	.loc 1 395 3 is_stmt 1 view .LVU727
	.loc 1 395 8 is_stmt 0 view .LVU728
	movl	%eax, %eax
	movzbl	12(%rsp), %edi
	movb	%dil, 16(%rsp,%rax)
	.loc 1 396 3 is_stmt 1 view .LVU729
	.loc 1 396 10 is_stmt 0 view .LVU730
	leal	-1(%r15), %eax
	orb	$-128, 16(%rsp,%rax)
	.loc 1 397 3 is_stmt 1 view .LVU731
.LVL341:
	.loc 1 397 14 view .LVU732
	.loc 1 397 19 is_stmt 0 view .LVU733
	movl	%r15d, %r9d
	shrl	$3, %r9d
	.loc 1 397 3 view .LVU734
	cmpl	$7, %r15d
	jbe	.L20
	leaq	16(%rsp), %r8
	movl	$0, %edi
	jmp	.L33
.L37:
	.loc 1 393 9 view .LVU735
	movl	$0, %eax
	jmp	.L29
.LVL342:
.L48:
.LBB20:
.LBB21:
	.loc 1 37 3 is_stmt 1 view .LVU736
	.loc 1 37 3 is_stmt 0 view .LVU737
.LBE21:
.LBE20:
	.loc 1 398 10 view .LVU738
	xorq	%rsi, (%rbx,%rdi,8)
	.loc 1 397 23 is_stmt 1 view .LVU739
.LVL343:
	.loc 1 397 14 view .LVU740
	incq	%rdi
.LVL344:
	.loc 1 397 14 is_stmt 0 view .LVU741
	addq	$8, %r8
	.loc 1 397 3 view .LVU742
	cmpl	%edi, %r9d
	jbe	.L20
.L33:
.LVL345:
	.loc 1 398 5 is_stmt 1 discriminator 3 view .LVU743
.LBB24:
.LBI20:
	.loc 1 30 17 discriminator 3 view .LVU744
.LBB22:
	.loc 1 31 3 discriminator 3 view .LVU745
	.loc 1 32 3 discriminator 3 view .LVU746
	.loc 1 34 3 discriminator 3 view .LVU747
	.loc 1 34 15 discriminator 3 view .LVU748
.LBE22:
.LBE24:
	.loc 1 397 3 is_stmt 0 discriminator 3 view .LVU749
	movq	%r8, %rcx
	movl	$0, %eax
.LBB25:
.LBB23:
	.loc 1 32 12 discriminator 3 view .LVU750
	movl	$0, %esi
.LVL346:
.L32:
	.loc 1 35 5 is_stmt 1 view .LVU751
	.loc 1 35 10 is_stmt 0 view .LVU752
	movzbl	(%rcx), %edx
	.loc 1 35 25 view .LVU753
	shlx	%rax, %rdx, %rdx
	.loc 1 35 7 view .LVU754
	orq	%rdx, %rsi
.LVL347:
	.loc 1 34 22 is_stmt 1 view .LVU755
	.loc 1 34 15 view .LVU756
	incq	%rcx
.LVL348:
	.loc 1 34 15 is_stmt 0 view .LVU757
	addl	$8, %eax
	.loc 1 34 3 view .LVU758
	cmpl	$64, %eax
	jne	.L32
	jmp	.L48
.LVL349:
.L27:
	.loc 1 34 3 view .LVU759
.LBE23:
.LBE25:
	.loc 1 393 14 is_stmt 1 view .LVU760
	.loc 1 393 3 is_stmt 0 view .LVU761
	testq	%r13, %r13
	jne	.L34
.LVL350:
.L20:
	.loc 1 401 1 view .LVU762
	movq	216(%rsp), %rax
	xorq	%fs:40, %rax
	jne	.L49
	addq	$232, %rsp
	.cfi_remember_state
	.cfi_def_cfa_offset 56
	popq	%rbx
	.cfi_def_cfa_offset 48
.LVL351:
	.loc 1 401 1 view .LVU763
	popq	%rbp
	.cfi_def_cfa_offset 40
.LVL352:
	.loc 1 401 1 view .LVU764
	popq	%r12
	.cfi_def_cfa_offset 32
	popq	%r13
	.cfi_def_cfa_offset 24
.LVL353:
	.loc 1 401 1 view .LVU765
	popq	%r14
	.cfi_def_cfa_offset 16
	popq	%r15
	.cfi_def_cfa_offset 8
.LVL354:
	.loc 1 401 1 view .LVU766
	ret
.LVL355:
.L49:
	.cfi_restore_state
	.loc 1 401 1 view .LVU767
	call	__stack_chk_fail@PLT
.LVL356:
	.cfi_endproc
.LFE5:
	.size	keccak_absorb, .-keccak_absorb
	.globl	shake128_absorb
	.type	shake128_absorb, @function
shake128_absorb:
.LVL357:
.LFB7:
	.loc 1 450 1 is_stmt 1 view -0
	.cfi_startproc
	.loc 1 450 1 is_stmt 0 view .LVU769
	endbr64
	subq	$8, %rsp
	.cfi_def_cfa_offset 16
	movq	%rdx, %rcx
	.loc 1 451 3 is_stmt 1 view .LVU770
	movl	$31, %r8d
	movq	%rsi, %rdx
.LVL358:
	.loc 1 451 3 is_stmt 0 view .LVU771
	movl	$168, %esi
.LVL359:
	.loc 1 451 3 view .LVU772
	call	keccak_absorb
.LVL360:
	.loc 1 452 1 view .LVU773
	addq	$8, %rsp
	.cfi_def_cfa_offset 8
	ret
	.cfi_endproc
.LFE7:
	.size	shake128_absorb, .-shake128_absorb
	.globl	shake128_stream_init
	.type	shake128_stream_init, @function
shake128_stream_init:
.LVL361:
.LFB8:
	.loc 1 457 1 is_stmt 1 view -0
	.cfi_startproc
	.loc 1 457 1 is_stmt 0 view .LVU775
	endbr64
	subq	$56, %rsp
	.cfi_def_cfa_offset 64
	.loc 1 457 1 view .LVU776
	movq	%fs:40, %rax
	movq	%rax, 40(%rsp)
	xorl	%eax, %eax
	.loc 1 458 3 is_stmt 1 view .LVU777
	.loc 1 459 3 view .LVU778
	.loc 1 461 3 view .LVU779
.LVL362:
	.loc 1 461 14 view .LVU780
.L53:
	.loc 1 462 5 discriminator 3 view .LVU781
	.loc 1 462 12 is_stmt 0 discriminator 3 view .LVU782
	movzbl	(%rsi,%rax), %ecx
	movb	%cl, (%rsp,%rax)
	.loc 1 461 29 is_stmt 1 discriminator 3 view .LVU783
.LVL363:
	.loc 1 461 14 discriminator 3 view .LVU784
	incq	%rax
.LVL364:
	.loc 1 461 3 is_stmt 0 discriminator 3 view .LVU785
	cmpq	$32, %rax
	jne	.L53
	.loc 1 463 3 is_stmt 1 view .LVU786
	.loc 1 463 18 is_stmt 0 view .LVU787
	movb	%dl, 32(%rsp)
	.loc 1 464 3 is_stmt 1 view .LVU788
	.loc 1 464 20 is_stmt 0 view .LVU789
	movzbl	%dh, %eax
	movb	%al, 33(%rsp)
	.loc 1 466 3 is_stmt 1 view .LVU790
	movq	%rsp, %rdx
.LVL365:
	.loc 1 466 3 is_stmt 0 view .LVU791
	movl	$31, %r8d
	movl	$34, %ecx
	movl	$168, %esi
.LVL366:
	.loc 1 466 3 view .LVU792
	call	keccak_absorb
.LVL367:
	.loc 1 467 1 view .LVU793
	movq	40(%rsp), %rax
	xorq	%fs:40, %rax
	jne	.L57
	addq	$56, %rsp
	.cfi_remember_state
	.cfi_def_cfa_offset 8
	ret
.L57:
	.cfi_restore_state
	call	__stack_chk_fail@PLT
.LVL368:
	.cfi_endproc
.LFE8:
	.size	shake128_stream_init, .-shake128_stream_init
	.globl	shake128_squeezeblocks
	.type	shake128_squeezeblocks, @function
shake128_squeezeblocks:
.LVL369:
.LFB9:
	.loc 1 484 1 is_stmt 1 view -0
	.cfi_startproc
	.loc 1 484 1 is_stmt 0 view .LVU795
	endbr64
	.loc 1 485 3 is_stmt 1 view .LVU796
	movl	$168, %ecx
	call	keccak_squeezeblocks
.LVL370:
	.loc 1 486 1 is_stmt 0 view .LVU797
	ret
	.cfi_endproc
.LFE9:
	.size	shake128_squeezeblocks, .-shake128_squeezeblocks
	.globl	shake256_absorb
	.type	shake256_absorb, @function
shake256_absorb:
.LVL371:
.LFB10:
	.loc 1 502 1 is_stmt 1 view -0
	.cfi_startproc
	.loc 1 502 1 is_stmt 0 view .LVU799
	endbr64
	subq	$8, %rsp
	.cfi_def_cfa_offset 16
	movq	%rdx, %rcx
	.loc 1 503 3 is_stmt 1 view .LVU800
	movl	$31, %r8d
	movq	%rsi, %rdx
.LVL372:
	.loc 1 503 3 is_stmt 0 view .LVU801
	movl	$136, %esi
.LVL373:
	.loc 1 503 3 view .LVU802
	call	keccak_absorb
.LVL374:
	.loc 1 504 1 view .LVU803
	addq	$8, %rsp
	.cfi_def_cfa_offset 8
	ret
	.cfi_endproc
.LFE10:
	.size	shake256_absorb, .-shake256_absorb
	.globl	shake256_stream_init
	.type	shake256_stream_init, @function
shake256_stream_init:
.LVL375:
.LFB11:
	.loc 1 509 1 is_stmt 1 view -0
	.cfi_startproc
	.loc 1 509 1 is_stmt 0 view .LVU805
	endbr64
	subq	$72, %rsp
	.cfi_def_cfa_offset 80
	.loc 1 509 1 view .LVU806
	movq	%fs:40, %rax
	movq	%rax, 56(%rsp)
	xorl	%eax, %eax
	.loc 1 510 3 is_stmt 1 view .LVU807
	.loc 1 511 3 view .LVU808
	.loc 1 513 3 view .LVU809
.LVL376:
	.loc 1 513 14 view .LVU810
.L62:
	.loc 1 514 5 discriminator 3 view .LVU811
	.loc 1 514 12 is_stmt 0 discriminator 3 view .LVU812
	movzbl	(%rsi,%rax), %ecx
	movb	%cl, (%rsp,%rax)
	.loc 1 513 28 is_stmt 1 discriminator 3 view .LVU813
.LVL377:
	.loc 1 513 14 discriminator 3 view .LVU814
	incq	%rax
.LVL378:
	.loc 1 513 3 is_stmt 0 discriminator 3 view .LVU815
	cmpq	$48, %rax
	jne	.L62
	.loc 1 515 3 is_stmt 1 view .LVU816
	.loc 1 515 17 is_stmt 0 view .LVU817
	movb	%dl, 48(%rsp)
	.loc 1 516 3 is_stmt 1 view .LVU818
	.loc 1 516 19 is_stmt 0 view .LVU819
	movzbl	%dh, %eax
	movb	%al, 49(%rsp)
	.loc 1 518 3 is_stmt 1 view .LVU820
	movq	%rsp, %rdx
.LVL379:
	.loc 1 518 3 is_stmt 0 view .LVU821
	movl	$31, %r8d
	movl	$50, %ecx
	movl	$136, %esi
.LVL380:
	.loc 1 518 3 view .LVU822
	call	keccak_absorb
.LVL381:
	.loc 1 519 1 view .LVU823
	movq	56(%rsp), %rax
	xorq	%fs:40, %rax
	jne	.L66
	addq	$72, %rsp
	.cfi_remember_state
	.cfi_def_cfa_offset 8
	ret
.L66:
	.cfi_restore_state
	call	__stack_chk_fail@PLT
.LVL382:
	.cfi_endproc
.LFE11:
	.size	shake256_stream_init, .-shake256_stream_init
	.globl	shake256_squeezeblocks
	.type	shake256_squeezeblocks, @function
shake256_squeezeblocks:
.LVL383:
.LFB12:
	.loc 1 537 1 is_stmt 1 view -0
	.cfi_startproc
	.loc 1 537 1 is_stmt 0 view .LVU825
	endbr64
	.loc 1 538 3 is_stmt 1 view .LVU826
	movl	$136, %ecx
	call	keccak_squeezeblocks
.LVL384:
	.loc 1 539 1 is_stmt 0 view .LVU827
	ret
	.cfi_endproc
.LFE12:
	.size	shake256_squeezeblocks, .-shake256_squeezeblocks
	.globl	shake128
	.type	shake128, @function
shake128:
.LVL385:
.LFB13:
	.loc 1 555 1 is_stmt 1 view -0
	.cfi_startproc
	.loc 1 555 1 is_stmt 0 view .LVU829
	endbr64
	pushq	%r13
	.cfi_def_cfa_offset 16
	.cfi_offset 13, -16
	pushq	%r12
	.cfi_def_cfa_offset 24
	.cfi_offset 12, -24
	pushq	%rbp
	.cfi_def_cfa_offset 32
	.cfi_offset 6, -32
	pushq	%rbx
	.cfi_def_cfa_offset 40
	.cfi_offset 3, -40
	subq	$392, %rsp
	.cfi_def_cfa_offset 432
	movq	%rdi, %r12
	movq	%rsi, %rbx
	movq	%rdx, %rsi
.LVL386:
	.loc 1 555 1 view .LVU830
	movq	%fs:40, %rax
	movq	%rax, 376(%rsp)
	xorl	%eax, %eax
	.loc 1 556 3 is_stmt 1 view .LVU831
	.loc 1 557 3 view .LVU832
	.loc 1 557 17 is_stmt 0 view .LVU833
	movq	%rbx, %rbp
	shrq	$3, %rbp
	movabsq	$878416384462359601, %rdx
.LVL387:
	.loc 1 557 17 view .LVU834
	movq	%rbp, %rax
	mulq	%rdx
	movq	%rdx, %rbp
.LVL388:
	.loc 1 558 3 is_stmt 1 view .LVU835
	.loc 1 559 3 view .LVU836
	.loc 1 561 3 view .LVU837
	movq	%rsp, %r13
	movl	$31, %r8d
	movq	%rsi, %rdx
.LVL389:
	.loc 1 561 3 is_stmt 0 view .LVU838
	movl	$168, %esi
.LVL390:
	.loc 1 561 3 view .LVU839
	movq	%r13, %rdi
.LVL391:
	.loc 1 561 3 view .LVU840
	call	keccak_absorb
.LVL392:
	.loc 1 562 3 is_stmt 1 view .LVU841
	movl	$168, %ecx
	movq	%r13, %rdx
	movq	%rbp, %rsi
	movq	%r12, %rdi
	call	keccak_squeezeblocks
.LVL393:
	.loc 1 564 3 view .LVU842
	.loc 1 565 3 view .LVU843
	imulq	$168, %rbp, %rax
.LVL394:
	.loc 1 567 3 view .LVU844
	.loc 1 567 5 is_stmt 0 view .LVU845
	subq	%rax, %rbx
.LVL395:
	.loc 1 567 5 view .LVU846
	jne	.L74
.LVL396:
.L68:
	.loc 1 572 1 view .LVU847
	movq	376(%rsp), %rax
	xorq	%fs:40, %rax
	jne	.L75
	addq	$392, %rsp
	.cfi_remember_state
	.cfi_def_cfa_offset 40
	popq	%rbx
	.cfi_def_cfa_offset 32
.LVL397:
	.loc 1 572 1 view .LVU848
	popq	%rbp
	.cfi_def_cfa_offset 24
	popq	%r12
	.cfi_def_cfa_offset 16
.LVL398:
	.loc 1 572 1 view .LVU849
	popq	%r13
	.cfi_def_cfa_offset 8
	ret
.LVL399:
.L74:
	.cfi_restore_state
	.loc 1 564 20 view .LVU850
	movq	%rax, %rbp
.LVL400:
	.loc 1 568 5 is_stmt 1 view .LVU851
	movq	%rsp, %rdx
	leaq	208(%rsp), %rdi
	movl	$168, %ecx
	movl	$1, %esi
	call	keccak_squeezeblocks
.LVL401:
	.loc 1 569 5 view .LVU852
	.loc 1 569 16 view .LVU853
	.loc 1 568 5 is_stmt 0 view .LVU854
	movl	$0, %ecx
	.loc 1 570 17 view .LVU855
	addq	%r12, %rbp
.LVL402:
.L70:
	.loc 1 570 7 is_stmt 1 discriminator 3 view .LVU856
	.loc 1 570 17 is_stmt 0 discriminator 3 view .LVU857
	movzbl	208(%rsp,%rcx), %eax
	movb	%al, 0(%rbp,%rcx)
	.loc 1 569 28 is_stmt 1 discriminator 3 view .LVU858
.LVL403:
	.loc 1 569 16 discriminator 3 view .LVU859
	incq	%rcx
.LVL404:
	.loc 1 569 5 is_stmt 0 discriminator 3 view .LVU860
	cmpq	%rbx, %rcx
	jne	.L70
	jmp	.L68
.L75:
	.loc 1 572 1 view .LVU861
	call	__stack_chk_fail@PLT
.LVL405:
	.cfi_endproc
.LFE13:
	.size	shake128, .-shake128
	.globl	shake256
	.type	shake256, @function
shake256:
.LVL406:
.LFB14:
	.loc 1 588 1 is_stmt 1 view -0
	.cfi_startproc
	.loc 1 588 1 is_stmt 0 view .LVU863
	endbr64
	pushq	%r13
	.cfi_def_cfa_offset 16
	.cfi_offset 13, -16
	pushq	%r12
	.cfi_def_cfa_offset 24
	.cfi_offset 12, -24
	pushq	%rbp
	.cfi_def_cfa_offset 32
	.cfi_offset 6, -32
	pushq	%rbx
	.cfi_def_cfa_offset 40
	.cfi_offset 3, -40
	subq	$360, %rsp
	.cfi_def_cfa_offset 400
	movq	%rdi, %r12
	movq	%rsi, %rbx
	movq	%rdx, %rsi
.LVL407:
	.loc 1 588 1 view .LVU864
	movq	%fs:40, %rax
	movq	%rax, 344(%rsp)
	xorl	%eax, %eax
	.loc 1 589 3 is_stmt 1 view .LVU865
	.loc 1 590 3 view .LVU866
	.loc 1 590 17 is_stmt 0 view .LVU867
	movabsq	$-1085102592571150095, %rdx
.LVL408:
	.loc 1 590 17 view .LVU868
	movq	%rbx, %rax
	mulq	%rdx
	shrq	$7, %rdx
	movq	%rdx, %rbp
.LVL409:
	.loc 1 591 3 is_stmt 1 view .LVU869
	.loc 1 592 3 view .LVU870
	.loc 1 594 3 view .LVU871
	movq	%rsp, %r13
	movl	$31, %r8d
	movq	%rsi, %rdx
.LVL410:
	.loc 1 594 3 is_stmt 0 view .LVU872
	movl	$136, %esi
.LVL411:
	.loc 1 594 3 view .LVU873
	movq	%r13, %rdi
.LVL412:
	.loc 1 594 3 view .LVU874
	call	keccak_absorb
.LVL413:
	.loc 1 595 3 is_stmt 1 view .LVU875
	movl	$136, %ecx
	movq	%r13, %rdx
	movq	%rbp, %rsi
	movq	%r12, %rdi
	call	keccak_squeezeblocks
.LVL414:
	.loc 1 597 3 view .LVU876
	.loc 1 598 3 view .LVU877
	imulq	$136, %rbp, %rax
.LVL415:
	.loc 1 600 3 view .LVU878
	.loc 1 600 5 is_stmt 0 view .LVU879
	subq	%rax, %rbx
.LVL416:
	.loc 1 600 5 view .LVU880
	jne	.L82
.LVL417:
.L76:
	.loc 1 605 1 view .LVU881
	movq	344(%rsp), %rax
	xorq	%fs:40, %rax
	jne	.L83
	addq	$360, %rsp
	.cfi_remember_state
	.cfi_def_cfa_offset 40
	popq	%rbx
	.cfi_def_cfa_offset 32
.LVL418:
	.loc 1 605 1 view .LVU882
	popq	%rbp
	.cfi_def_cfa_offset 24
	popq	%r12
	.cfi_def_cfa_offset 16
.LVL419:
	.loc 1 605 1 view .LVU883
	popq	%r13
	.cfi_def_cfa_offset 8
	ret
.LVL420:
.L82:
	.cfi_restore_state
	.loc 1 597 20 view .LVU884
	movq	%rax, %rbp
.LVL421:
	.loc 1 601 5 is_stmt 1 view .LVU885
	movq	%rsp, %rdx
	leaq	208(%rsp), %rdi
	movl	$136, %ecx
	movl	$1, %esi
	call	keccak_squeezeblocks
.LVL422:
	.loc 1 602 5 view .LVU886
	.loc 1 602 16 view .LVU887
	.loc 1 601 5 is_stmt 0 view .LVU888
	movl	$0, %edx
	.loc 1 603 17 view .LVU889
	addq	%r12, %rbp
.LVL423:
.L78:
	.loc 1 603 7 is_stmt 1 discriminator 3 view .LVU890
	.loc 1 603 17 is_stmt 0 discriminator 3 view .LVU891
	movzbl	208(%rsp,%rdx), %eax
	movb	%al, 0(%rbp,%rdx)
	.loc 1 602 28 is_stmt 1 discriminator 3 view .LVU892
.LVL424:
	.loc 1 602 16 discriminator 3 view .LVU893
	incq	%rdx
.LVL425:
	.loc 1 602 5 is_stmt 0 discriminator 3 view .LVU894
	cmpq	%rbx, %rdx
	jne	.L78
	jmp	.L76
.L83:
	.loc 1 605 1 view .LVU895
	call	__stack_chk_fail@PLT
.LVL426:
	.cfi_endproc
.LFE14:
	.size	shake256, .-shake256
	.section	.rodata
	.align 32
	.type	KeccakF_RoundConstants, @object
	.size	KeccakF_RoundConstants, 192
KeccakF_RoundConstants:
	.quad	1
	.quad	32898
	.quad	-9223372036854742902
	.quad	-9223372034707259392
	.quad	32907
	.quad	2147483649
	.quad	-9223372034707259263
	.quad	-9223372036854743031
	.quad	138
	.quad	136
	.quad	2147516425
	.quad	2147483658
	.quad	2147516555
	.quad	-9223372036854775669
	.quad	-9223372036854742903
	.quad	-9223372036854743037
	.quad	-9223372036854743038
	.quad	-9223372036854775680
	.quad	32778
	.quad	-9223372034707292150
	.quad	-9223372034707259263
	.quad	-9223372036854742912
	.quad	2147483649
	.quad	-9223372034707259384
	.text
.Letext0:
	.file 2 "/usr/include/x86_64-linux-gnu/bits/types.h"
	.file 3 "/usr/include/x86_64-linux-gnu/bits/stdint-uintn.h"
	.file 4 "fips202.h"
	.section	.note.GNU-stack,"",@progbits
	.section	.note.gnu.property,"a"
	.align 8
	.long	 1f - 0f
	.long	 4f - 1f
	.long	 5
0:
	.string	 "GNU"
1:
	.align 8
	.long	 0xc0000002
	.long	 3f - 2f
2:
	.long	 0x3
3:
	.align 8
4:
