	.file	"polyvec.c"
	.text
.Ltext0:
	.globl	polyvecl_freeze
	.type	polyvecl_freeze, @function
polyvecl_freeze:
.LVL0:
.LFB0:
	.file 1 "polyvec.c"
	.loc 1 18 35 view -0
	.cfi_startproc
	.loc 1 18 35 is_stmt 0 view .LVU1
	endbr64
	pushq	%rbx
	.cfi_def_cfa_offset 16
	.cfi_offset 3, -16
	movq	%rdi, %rbx
	.loc 1 19 3 is_stmt 1 view .LVU2
	.loc 1 21 3 view .LVU3
.LVL1:
	.loc 1 21 14 view .LVU4
	.loc 1 22 5 view .LVU5
	call	poly_freeze@PLT
.LVL2:
	.loc 1 21 21 view .LVU6
	.loc 1 21 14 view .LVU7
	.loc 1 22 5 view .LVU8
	leaq	1024(%rbx), %rdi
	call	poly_freeze@PLT
.LVL3:
	.loc 1 21 21 view .LVU9
	.loc 1 21 14 view .LVU10
	.loc 1 22 5 view .LVU11
	leaq	2048(%rbx), %rdi
	call	poly_freeze@PLT
.LVL4:
	.loc 1 21 21 view .LVU12
	.loc 1 21 14 view .LVU13
	.loc 1 23 1 is_stmt 0 view .LVU14
	popq	%rbx
	.cfi_def_cfa_offset 8
.LVL5:
	.loc 1 23 1 view .LVU15
	ret
	.cfi_endproc
.LFE0:
	.size	polyvecl_freeze, .-polyvecl_freeze
	.globl	polyvecl_add
	.type	polyvecl_add, @function
polyvecl_add:
.LVL6:
.LFB1:
	.loc 1 35 70 is_stmt 1 view -0
	.cfi_startproc
	.loc 1 35 70 is_stmt 0 view .LVU17
	endbr64
	pushq	%r12
	.cfi_def_cfa_offset 16
	.cfi_offset 12, -16
	pushq	%rbp
	.cfi_def_cfa_offset 24
	.cfi_offset 6, -24
	pushq	%rbx
	.cfi_def_cfa_offset 32
	.cfi_offset 3, -32
	movq	%rdi, %rbx
	movq	%rsi, %rbp
	movq	%rdx, %r12
	.loc 1 36 3 is_stmt 1 view .LVU18
	.loc 1 38 3 view .LVU19
.LVL7:
	.loc 1 38 14 view .LVU20
	.loc 1 39 5 view .LVU21
	call	poly_add@PLT
.LVL8:
	.loc 1 38 21 view .LVU22
	.loc 1 38 14 view .LVU23
	.loc 1 39 5 view .LVU24
	leaq	1024(%r12), %rdx
	leaq	1024(%rbp), %rsi
	leaq	1024(%rbx), %rdi
	call	poly_add@PLT
.LVL9:
	.loc 1 38 21 view .LVU25
	.loc 1 38 14 view .LVU26
	.loc 1 39 5 view .LVU27
	leaq	2048(%r12), %rdx
	leaq	2048(%rbp), %rsi
	leaq	2048(%rbx), %rdi
	call	poly_add@PLT
.LVL10:
	.loc 1 38 21 view .LVU28
	.loc 1 38 14 view .LVU29
	.loc 1 40 1 is_stmt 0 view .LVU30
	popq	%rbx
	.cfi_def_cfa_offset 24
.LVL11:
	.loc 1 40 1 view .LVU31
	popq	%rbp
	.cfi_def_cfa_offset 16
.LVL12:
	.loc 1 40 1 view .LVU32
	popq	%r12
	.cfi_def_cfa_offset 8
.LVL13:
	.loc 1 40 1 view .LVU33
	ret
	.cfi_endproc
.LFE1:
	.size	polyvecl_add, .-polyvecl_add
	.globl	polyvecl_ntt
	.type	polyvecl_ntt, @function
polyvecl_ntt:
.LVL14:
.LFB2:
	.loc 1 50 32 is_stmt 1 view -0
	.cfi_startproc
	.loc 1 50 32 is_stmt 0 view .LVU35
	endbr64
	pushq	%rbx
	.cfi_def_cfa_offset 16
	.cfi_offset 3, -16
	movq	%rdi, %rbx
	.loc 1 51 3 is_stmt 1 view .LVU36
	.loc 1 53 3 view .LVU37
.LVL15:
	.loc 1 53 14 view .LVU38
	.loc 1 54 5 view .LVU39
	call	poly_ntt@PLT
.LVL16:
	.loc 1 53 21 view .LVU40
	.loc 1 53 14 view .LVU41
	.loc 1 54 5 view .LVU42
	leaq	1024(%rbx), %rdi
	call	poly_ntt@PLT
.LVL17:
	.loc 1 53 21 view .LVU43
	.loc 1 53 14 view .LVU44
	.loc 1 54 5 view .LVU45
	leaq	2048(%rbx), %rdi
	call	poly_ntt@PLT
.LVL18:
	.loc 1 53 21 view .LVU46
	.loc 1 53 14 view .LVU47
	.loc 1 55 1 is_stmt 0 view .LVU48
	popq	%rbx
	.cfi_def_cfa_offset 8
.LVL19:
	.loc 1 55 1 view .LVU49
	ret
	.cfi_endproc
.LFE2:
	.size	polyvecl_ntt, .-polyvecl_ntt
	.globl	polyvecl_pointwise_acc_invmontgomery
	.type	polyvecl_pointwise_acc_invmontgomery, @function
polyvecl_pointwise_acc_invmontgomery:
.LVL20:
.LFB3:
	.loc 1 73 1 is_stmt 1 view -0
	.cfi_startproc
	.loc 1 73 1 is_stmt 0 view .LVU51
	endbr64
	pushq	%rbp
	.cfi_def_cfa_offset 16
	.cfi_offset 6, -16
	movq	%rsp, %rbp
	.cfi_def_cfa_register 6
	pushq	%r15
	pushq	%r14
	pushq	%r13
	pushq	%r12
	pushq	%rbx
	andq	$-32, %rsp
	subq	$1056, %rsp
	.cfi_offset 15, -24
	.cfi_offset 14, -32
	.cfi_offset 13, -40
	.cfi_offset 12, -48
	.cfi_offset 3, -56
	movq	%rdi, %rbx
	movq	%rsi, %r12
	movq	%rdx, %r13
	.loc 1 73 1 view .LVU52
	movl	$40, %r15d
	movq	%fs:(%r15), %rax
	movq	%rax, 1048(%rsp)
	xorl	%eax, %eax
	.loc 1 74 3 is_stmt 1 view .LVU53
	.loc 1 75 3 view .LVU54
	.loc 1 77 3 view .LVU55
	call	poly_pointwise_invmontgomery@PLT
.LVL21:
	.loc 1 79 3 view .LVU56
	.loc 1 79 14 view .LVU57
	.loc 1 80 5 view .LVU58
	leaq	1024(%r13), %rdx
	leaq	1024(%r12), %rsi
	movq	%rsp, %r14
	movq	%r14, %rdi
	call	poly_pointwise_invmontgomery@PLT
.LVL22:
	.loc 1 81 5 view .LVU59
	movq	%r14, %rdx
	movq	%rbx, %rsi
	movq	%rbx, %rdi
	call	poly_add@PLT
.LVL23:
	.loc 1 79 21 view .LVU60
	.loc 1 79 14 view .LVU61
	.loc 1 80 5 view .LVU62
	leaq	2048(%r13), %rdx
	leaq	2048(%r12), %rsi
	movq	%r14, %rdi
	call	poly_pointwise_invmontgomery@PLT
.LVL24:
	.loc 1 81 5 view .LVU63
	movq	%r14, %rdx
	movq	%rbx, %rsi
	movq	%rbx, %rdi
	call	poly_add@PLT
.LVL25:
	.loc 1 79 21 view .LVU64
	.loc 1 79 14 view .LVU65
	.loc 1 83 1 is_stmt 0 view .LVU66
	movq	1048(%rsp), %rax
	xorq	%fs:(%r15), %rax
	jne	.L10
	leaq	-40(%rbp), %rsp
	popq	%rbx
.LVL26:
	.loc 1 83 1 view .LVU67
	popq	%r12
.LVL27:
	.loc 1 83 1 view .LVU68
	popq	%r13
.LVL28:
	.loc 1 83 1 view .LVU69
	popq	%r14
	popq	%r15
	popq	%rbp
	.cfi_remember_state
	.cfi_def_cfa 7, 8
	ret
.LVL29:
.L10:
	.cfi_restore_state
	.loc 1 83 1 view .LVU70
	call	__stack_chk_fail@PLT
.LVL30:
	.cfi_endproc
.LFE3:
	.size	polyvecl_pointwise_acc_invmontgomery, .-polyvecl_pointwise_acc_invmontgomery
	.globl	polyvecl_chknorm
	.type	polyvecl_chknorm, @function
polyvecl_chknorm:
.LVL31:
.LFB4:
	.loc 1 97 58 is_stmt 1 view -0
	.cfi_startproc
	.loc 1 97 58 is_stmt 0 view .LVU72
	endbr64
	pushq	%r12
	.cfi_def_cfa_offset 16
	.cfi_offset 12, -16
	pushq	%rbp
	.cfi_def_cfa_offset 24
	.cfi_offset 6, -24
	pushq	%rbx
	.cfi_def_cfa_offset 32
	.cfi_offset 3, -32
	movl	%esi, %r12d
	.loc 1 98 3 is_stmt 1 view .LVU73
	.loc 1 100 3 view .LVU74
.LVL32:
	.loc 1 100 14 view .LVU75
	movq	%rdi, %rbx
	leaq	3072(%rdi), %rbp
.LVL33:
.L13:
	.loc 1 101 5 view .LVU76
	.loc 1 101 8 is_stmt 0 view .LVU77
	movl	%r12d, %esi
	movq	%rbx, %rdi
	call	poly_chknorm@PLT
.LVL34:
	.loc 1 101 7 view .LVU78
	testl	%eax, %eax
	jne	.L14
	.loc 1 100 21 is_stmt 1 discriminator 2 view .LVU79
	.loc 1 100 14 discriminator 2 view .LVU80
	addq	$1024, %rbx
	.loc 1 100 3 is_stmt 0 discriminator 2 view .LVU81
	cmpq	%rbp, %rbx
	jne	.L13
.L11:
	.loc 1 105 1 view .LVU82
	popq	%rbx
	.cfi_remember_state
	.cfi_def_cfa_offset 24
	popq	%rbp
	.cfi_def_cfa_offset 16
.LVL35:
	.loc 1 105 1 view .LVU83
	popq	%r12
	.cfi_def_cfa_offset 8
.LVL36:
	.loc 1 105 1 view .LVU84
	ret
.LVL37:
.L14:
	.cfi_restore_state
	.loc 1 102 14 view .LVU85
	movl	$1, %eax
	jmp	.L11
	.cfi_endproc
.LFE4:
	.size	polyvecl_chknorm, .-polyvecl_chknorm
	.globl	polyveck_reduce
	.type	polyveck_reduce, @function
polyveck_reduce:
.LVL38:
.LFB5:
	.loc 1 120 35 is_stmt 1 view -0
	.cfi_startproc
	.loc 1 120 35 is_stmt 0 view .LVU87
	endbr64
	pushq	%rbx
	.cfi_def_cfa_offset 16
	.cfi_offset 3, -16
	movq	%rdi, %rbx
	.loc 1 121 3 is_stmt 1 view .LVU88
	.loc 1 123 3 view .LVU89
.LVL39:
	.loc 1 123 14 view .LVU90
	.loc 1 124 5 view .LVU91
	call	poly_reduce@PLT
.LVL40:
	.loc 1 123 21 view .LVU92
	.loc 1 123 14 view .LVU93
	.loc 1 124 5 view .LVU94
	leaq	1024(%rbx), %rdi
	call	poly_reduce@PLT
.LVL41:
	.loc 1 123 21 view .LVU95
	.loc 1 123 14 view .LVU96
	.loc 1 124 5 view .LVU97
	leaq	2048(%rbx), %rdi
	call	poly_reduce@PLT
.LVL42:
	.loc 1 123 21 view .LVU98
	.loc 1 123 14 view .LVU99
	.loc 1 124 5 view .LVU100
	leaq	3072(%rbx), %rdi
	call	poly_reduce@PLT
.LVL43:
	.loc 1 123 21 view .LVU101
	.loc 1 123 14 view .LVU102
	.loc 1 125 1 is_stmt 0 view .LVU103
	popq	%rbx
	.cfi_def_cfa_offset 8
.LVL44:
	.loc 1 125 1 view .LVU104
	ret
	.cfi_endproc
.LFE5:
	.size	polyveck_reduce, .-polyveck_reduce
	.globl	polyveck_csubq
	.type	polyveck_csubq, @function
polyveck_csubq:
.LVL45:
.LFB6:
	.loc 1 135 34 is_stmt 1 view -0
	.cfi_startproc
	.loc 1 135 34 is_stmt 0 view .LVU106
	endbr64
	pushq	%rbx
	.cfi_def_cfa_offset 16
	.cfi_offset 3, -16
	movq	%rdi, %rbx
	.loc 1 136 3 is_stmt 1 view .LVU107
	.loc 1 138 3 view .LVU108
.LVL46:
	.loc 1 138 14 view .LVU109
	.loc 1 139 5 view .LVU110
	call	poly_csubq@PLT
.LVL47:
	.loc 1 138 21 view .LVU111
	.loc 1 138 14 view .LVU112
	.loc 1 139 5 view .LVU113
	leaq	1024(%rbx), %rdi
	call	poly_csubq@PLT
.LVL48:
	.loc 1 138 21 view .LVU114
	.loc 1 138 14 view .LVU115
	.loc 1 139 5 view .LVU116
	leaq	2048(%rbx), %rdi
	call	poly_csubq@PLT
.LVL49:
	.loc 1 138 21 view .LVU117
	.loc 1 138 14 view .LVU118
	.loc 1 139 5 view .LVU119
	leaq	3072(%rbx), %rdi
	call	poly_csubq@PLT
.LVL50:
	.loc 1 138 21 view .LVU120
	.loc 1 138 14 view .LVU121
	.loc 1 140 1 is_stmt 0 view .LVU122
	popq	%rbx
	.cfi_def_cfa_offset 8
.LVL51:
	.loc 1 140 1 view .LVU123
	ret
	.cfi_endproc
.LFE6:
	.size	polyveck_csubq, .-polyveck_csubq
	.globl	polyveck_freeze
	.type	polyveck_freeze, @function
polyveck_freeze:
.LVL52:
.LFB7:
	.loc 1 150 36 is_stmt 1 view -0
	.cfi_startproc
	.loc 1 150 36 is_stmt 0 view .LVU125
	endbr64
	pushq	%rbx
	.cfi_def_cfa_offset 16
	.cfi_offset 3, -16
	movq	%rdi, %rbx
	.loc 1 151 3 is_stmt 1 view .LVU126
	.loc 1 153 3 view .LVU127
.LVL53:
	.loc 1 153 14 view .LVU128
	.loc 1 154 5 view .LVU129
	call	poly_freeze@PLT
.LVL54:
	.loc 1 153 21 view .LVU130
	.loc 1 153 14 view .LVU131
	.loc 1 154 5 view .LVU132
	leaq	1024(%rbx), %rdi
	call	poly_freeze@PLT
.LVL55:
	.loc 1 153 21 view .LVU133
	.loc 1 153 14 view .LVU134
	.loc 1 154 5 view .LVU135
	leaq	2048(%rbx), %rdi
	call	poly_freeze@PLT
.LVL56:
	.loc 1 153 21 view .LVU136
	.loc 1 153 14 view .LVU137
	.loc 1 154 5 view .LVU138
	leaq	3072(%rbx), %rdi
	call	poly_freeze@PLT
.LVL57:
	.loc 1 153 21 view .LVU139
	.loc 1 153 14 view .LVU140
	.loc 1 155 1 is_stmt 0 view .LVU141
	popq	%rbx
	.cfi_def_cfa_offset 8
.LVL58:
	.loc 1 155 1 view .LVU142
	ret
	.cfi_endproc
.LFE7:
	.size	polyveck_freeze, .-polyveck_freeze
	.globl	polyveck_add
	.type	polyveck_add, @function
polyveck_add:
.LVL59:
.LFB8:
	.loc 1 167 70 is_stmt 1 view -0
	.cfi_startproc
	.loc 1 167 70 is_stmt 0 view .LVU144
	endbr64
	pushq	%r13
	.cfi_def_cfa_offset 16
	.cfi_offset 13, -16
	pushq	%r12
	.cfi_def_cfa_offset 24
	.cfi_offset 12, -24
	pushq	%rbp
	.cfi_def_cfa_offset 32
	.cfi_offset 6, -32
	pushq	%rbx
	.cfi_def_cfa_offset 40
	.cfi_offset 3, -40
	subq	$8, %rsp
	.cfi_def_cfa_offset 48
	movq	%rdi, %r13
	movq	%rsi, %r12
	movq	%rdx, %rbp
	.loc 1 168 3 is_stmt 1 view .LVU145
	.loc 1 170 3 view .LVU146
.LVL60:
	.loc 1 170 14 view .LVU147
	.loc 1 167 70 is_stmt 0 view .LVU148
	movl	$0, %ebx
.LVL61:
.L24:
	.loc 1 171 5 is_stmt 1 discriminator 3 view .LVU149
	leaq	0(%rbp,%rbx), %rdx
	leaq	(%r12,%rbx), %rsi
	leaq	0(%r13,%rbx), %rdi
	call	poly_add@PLT
.LVL62:
	.loc 1 170 21 discriminator 3 view .LVU150
	.loc 1 170 14 discriminator 3 view .LVU151
	addq	$1024, %rbx
	.loc 1 170 3 is_stmt 0 discriminator 3 view .LVU152
	cmpq	$4096, %rbx
	jne	.L24
	.loc 1 172 1 view .LVU153
	addq	$8, %rsp
	.cfi_def_cfa_offset 40
	popq	%rbx
	.cfi_def_cfa_offset 32
	popq	%rbp
	.cfi_def_cfa_offset 24
.LVL63:
	.loc 1 172 1 view .LVU154
	popq	%r12
	.cfi_def_cfa_offset 16
.LVL64:
	.loc 1 172 1 view .LVU155
	popq	%r13
	.cfi_def_cfa_offset 8
.LVL65:
	.loc 1 172 1 view .LVU156
	ret
	.cfi_endproc
.LFE8:
	.size	polyveck_add, .-polyveck_add
	.globl	polyveck_sub
	.type	polyveck_sub, @function
polyveck_sub:
.LVL66:
.LFB9:
	.loc 1 186 70 is_stmt 1 view -0
	.cfi_startproc
	.loc 1 186 70 is_stmt 0 view .LVU158
	endbr64
	pushq	%r13
	.cfi_def_cfa_offset 16
	.cfi_offset 13, -16
	pushq	%r12
	.cfi_def_cfa_offset 24
	.cfi_offset 12, -24
	pushq	%rbp
	.cfi_def_cfa_offset 32
	.cfi_offset 6, -32
	pushq	%rbx
	.cfi_def_cfa_offset 40
	.cfi_offset 3, -40
	subq	$8, %rsp
	.cfi_def_cfa_offset 48
	movq	%rdi, %r13
	movq	%rsi, %r12
	movq	%rdx, %rbp
	.loc 1 187 3 is_stmt 1 view .LVU159
	.loc 1 189 3 view .LVU160
.LVL67:
	.loc 1 189 14 view .LVU161
	.loc 1 186 70 is_stmt 0 view .LVU162
	movl	$0, %ebx
.LVL68:
.L28:
	.loc 1 190 5 is_stmt 1 discriminator 3 view .LVU163
	leaq	0(%rbp,%rbx), %rdx
	leaq	(%r12,%rbx), %rsi
	leaq	0(%r13,%rbx), %rdi
	call	poly_sub@PLT
.LVL69:
	.loc 1 189 21 discriminator 3 view .LVU164
	.loc 1 189 14 discriminator 3 view .LVU165
	addq	$1024, %rbx
	.loc 1 189 3 is_stmt 0 discriminator 3 view .LVU166
	cmpq	$4096, %rbx
	jne	.L28
	.loc 1 191 1 view .LVU167
	addq	$8, %rsp
	.cfi_def_cfa_offset 40
	popq	%rbx
	.cfi_def_cfa_offset 32
	popq	%rbp
	.cfi_def_cfa_offset 24
.LVL70:
	.loc 1 191 1 view .LVU168
	popq	%r12
	.cfi_def_cfa_offset 16
.LVL71:
	.loc 1 191 1 view .LVU169
	popq	%r13
	.cfi_def_cfa_offset 8
.LVL72:
	.loc 1 191 1 view .LVU170
	ret
	.cfi_endproc
.LFE9:
	.size	polyveck_sub, .-polyveck_sub
	.globl	polyveck_shiftl
	.type	polyveck_shiftl, @function
polyveck_shiftl:
.LVL73:
.LFB10:
	.loc 1 201 35 is_stmt 1 view -0
	.cfi_startproc
	.loc 1 201 35 is_stmt 0 view .LVU172
	endbr64
	pushq	%rbx
	.cfi_def_cfa_offset 16
	.cfi_offset 3, -16
	movq	%rdi, %rbx
	.loc 1 202 3 is_stmt 1 view .LVU173
	.loc 1 204 3 view .LVU174
.LVL74:
	.loc 1 204 14 view .LVU175
	.loc 1 205 5 view .LVU176
	call	poly_shiftl@PLT
.LVL75:
	.loc 1 204 21 view .LVU177
	.loc 1 204 14 view .LVU178
	.loc 1 205 5 view .LVU179
	leaq	1024(%rbx), %rdi
	call	poly_shiftl@PLT
.LVL76:
	.loc 1 204 21 view .LVU180
	.loc 1 204 14 view .LVU181
	.loc 1 205 5 view .LVU182
	leaq	2048(%rbx), %rdi
	call	poly_shiftl@PLT
.LVL77:
	.loc 1 204 21 view .LVU183
	.loc 1 204 14 view .LVU184
	.loc 1 205 5 view .LVU185
	leaq	3072(%rbx), %rdi
	call	poly_shiftl@PLT
.LVL78:
	.loc 1 204 21 view .LVU186
	.loc 1 204 14 view .LVU187
	.loc 1 206 1 is_stmt 0 view .LVU188
	popq	%rbx
	.cfi_def_cfa_offset 8
.LVL79:
	.loc 1 206 1 view .LVU189
	ret
	.cfi_endproc
.LFE10:
	.size	polyveck_shiftl, .-polyveck_shiftl
	.globl	polyveck_ntt
	.type	polyveck_ntt, @function
polyveck_ntt:
.LVL80:
.LFB11:
	.loc 1 216 32 is_stmt 1 view -0
	.cfi_startproc
	.loc 1 216 32 is_stmt 0 view .LVU191
	endbr64
	pushq	%rbx
	.cfi_def_cfa_offset 16
	.cfi_offset 3, -16
	movq	%rdi, %rbx
	.loc 1 217 3 is_stmt 1 view .LVU192
	.loc 1 219 3 view .LVU193
.LVL81:
	.loc 1 219 14 view .LVU194
	.loc 1 220 5 view .LVU195
	call	poly_ntt@PLT
.LVL82:
	.loc 1 219 21 view .LVU196
	.loc 1 219 14 view .LVU197
	.loc 1 220 5 view .LVU198
	leaq	1024(%rbx), %rdi
	call	poly_ntt@PLT
.LVL83:
	.loc 1 219 21 view .LVU199
	.loc 1 219 14 view .LVU200
	.loc 1 220 5 view .LVU201
	leaq	2048(%rbx), %rdi
	call	poly_ntt@PLT
.LVL84:
	.loc 1 219 21 view .LVU202
	.loc 1 219 14 view .LVU203
	.loc 1 220 5 view .LVU204
	leaq	3072(%rbx), %rdi
	call	poly_ntt@PLT
.LVL85:
	.loc 1 219 21 view .LVU205
	.loc 1 219 14 view .LVU206
	.loc 1 221 1 is_stmt 0 view .LVU207
	popq	%rbx
	.cfi_def_cfa_offset 8
.LVL86:
	.loc 1 221 1 view .LVU208
	ret
	.cfi_endproc
.LFE11:
	.size	polyveck_ntt, .-polyveck_ntt
	.globl	polyveck_invntt_montgomery
	.type	polyveck_invntt_montgomery, @function
polyveck_invntt_montgomery:
.LVL87:
.LFB12:
	.loc 1 232 46 is_stmt 1 view -0
	.cfi_startproc
	.loc 1 232 46 is_stmt 0 view .LVU210
	endbr64
	pushq	%rbx
	.cfi_def_cfa_offset 16
	.cfi_offset 3, -16
	movq	%rdi, %rbx
	.loc 1 233 3 is_stmt 1 view .LVU211
	.loc 1 235 3 view .LVU212
.LVL88:
	.loc 1 235 14 view .LVU213
	.loc 1 236 5 view .LVU214
	call	poly_invntt_montgomery@PLT
.LVL89:
	.loc 1 235 21 view .LVU215
	.loc 1 235 14 view .LVU216
	.loc 1 236 5 view .LVU217
	leaq	1024(%rbx), %rdi
	call	poly_invntt_montgomery@PLT
.LVL90:
	.loc 1 235 21 view .LVU218
	.loc 1 235 14 view .LVU219
	.loc 1 236 5 view .LVU220
	leaq	2048(%rbx), %rdi
	call	poly_invntt_montgomery@PLT
.LVL91:
	.loc 1 235 21 view .LVU221
	.loc 1 235 14 view .LVU222
	.loc 1 236 5 view .LVU223
	leaq	3072(%rbx), %rdi
	call	poly_invntt_montgomery@PLT
.LVL92:
	.loc 1 235 21 view .LVU224
	.loc 1 235 14 view .LVU225
	.loc 1 237 1 is_stmt 0 view .LVU226
	popq	%rbx
	.cfi_def_cfa_offset 8
.LVL93:
	.loc 1 237 1 view .LVU227
	ret
	.cfi_endproc
.LFE12:
	.size	polyveck_invntt_montgomery, .-polyveck_invntt_montgomery
	.globl	polyveck_chknorm
	.type	polyveck_chknorm, @function
polyveck_chknorm:
.LVL94:
.LFB13:
	.loc 1 251 57 is_stmt 1 view -0
	.cfi_startproc
	.loc 1 251 57 is_stmt 0 view .LVU229
	endbr64
	pushq	%r12
	.cfi_def_cfa_offset 16
	.cfi_offset 12, -16
	pushq	%rbp
	.cfi_def_cfa_offset 24
	.cfi_offset 6, -24
	pushq	%rbx
	.cfi_def_cfa_offset 32
	.cfi_offset 3, -32
	movl	%esi, %r12d
	.loc 1 252 3 is_stmt 1 view .LVU230
	.loc 1 254 3 view .LVU231
.LVL95:
	.loc 1 254 14 view .LVU232
	movq	%rdi, %rbx
	leaq	4096(%rdi), %rbp
.LVL96:
.L39:
	.loc 1 255 5 view .LVU233
	.loc 1 255 8 is_stmt 0 view .LVU234
	movl	%r12d, %esi
	movq	%rbx, %rdi
	call	poly_chknorm@PLT
.LVL97:
	.loc 1 255 7 view .LVU235
	testl	%eax, %eax
	jne	.L40
	.loc 1 254 21 is_stmt 1 discriminator 2 view .LVU236
	.loc 1 254 14 discriminator 2 view .LVU237
	addq	$1024, %rbx
	.loc 1 254 3 is_stmt 0 discriminator 2 view .LVU238
	cmpq	%rbp, %rbx
	jne	.L39
.L37:
	.loc 1 259 1 view .LVU239
	popq	%rbx
	.cfi_remember_state
	.cfi_def_cfa_offset 24
	popq	%rbp
	.cfi_def_cfa_offset 16
.LVL98:
	.loc 1 259 1 view .LVU240
	popq	%r12
	.cfi_def_cfa_offset 8
.LVL99:
	.loc 1 259 1 view .LVU241
	ret
.LVL100:
.L40:
	.cfi_restore_state
	.loc 1 256 14 view .LVU242
	movl	$1, %eax
	jmp	.L37
	.cfi_endproc
.LFE13:
	.size	polyveck_chknorm, .-polyveck_chknorm
	.globl	polyveck_power2round
	.type	polyveck_power2round, @function
polyveck_power2round:
.LVL101:
.LFB14:
	.loc 1 275 74 is_stmt 1 view -0
	.cfi_startproc
	.loc 1 275 74 is_stmt 0 view .LVU244
	endbr64
	pushq	%r13
	.cfi_def_cfa_offset 16
	.cfi_offset 13, -16
	pushq	%r12
	.cfi_def_cfa_offset 24
	.cfi_offset 12, -24
	pushq	%rbp
	.cfi_def_cfa_offset 32
	.cfi_offset 6, -32
	pushq	%rbx
	.cfi_def_cfa_offset 40
	.cfi_offset 3, -40
	subq	$8, %rsp
	.cfi_def_cfa_offset 48
	movq	%rdi, %r13
	movq	%rsi, %r12
	movq	%rdx, %rbp
	.loc 1 276 3 is_stmt 1 view .LVU245
	.loc 1 278 3 view .LVU246
.LVL102:
	.loc 1 278 14 view .LVU247
	.loc 1 275 74 is_stmt 0 view .LVU248
	movl	$0, %ebx
.LVL103:
.L44:
	.loc 1 279 5 is_stmt 1 discriminator 3 view .LVU249
	leaq	0(%rbp,%rbx), %rdx
	leaq	(%r12,%rbx), %rsi
	leaq	0(%r13,%rbx), %rdi
	call	poly_power2round@PLT
.LVL104:
	.loc 1 278 21 discriminator 3 view .LVU250
	.loc 1 278 14 discriminator 3 view .LVU251
	addq	$1024, %rbx
	.loc 1 278 3 is_stmt 0 discriminator 3 view .LVU252
	cmpq	$4096, %rbx
	jne	.L44
	.loc 1 280 1 view .LVU253
	addq	$8, %rsp
	.cfi_def_cfa_offset 40
	popq	%rbx
	.cfi_def_cfa_offset 32
	popq	%rbp
	.cfi_def_cfa_offset 24
.LVL105:
	.loc 1 280 1 view .LVU254
	popq	%r12
	.cfi_def_cfa_offset 16
.LVL106:
	.loc 1 280 1 view .LVU255
	popq	%r13
	.cfi_def_cfa_offset 8
.LVL107:
	.loc 1 280 1 view .LVU256
	ret
	.cfi_endproc
.LFE14:
	.size	polyveck_power2round, .-polyveck_power2round
	.globl	polyveck_decompose
	.type	polyveck_decompose, @function
polyveck_decompose:
.LVL108:
.LFB15:
	.loc 1 297 72 is_stmt 1 view -0
	.cfi_startproc
	.loc 1 297 72 is_stmt 0 view .LVU258
	endbr64
	pushq	%r13
	.cfi_def_cfa_offset 16
	.cfi_offset 13, -16
	pushq	%r12
	.cfi_def_cfa_offset 24
	.cfi_offset 12, -24
	pushq	%rbp
	.cfi_def_cfa_offset 32
	.cfi_offset 6, -32
	pushq	%rbx
	.cfi_def_cfa_offset 40
	.cfi_offset 3, -40
	subq	$8, %rsp
	.cfi_def_cfa_offset 48
	movq	%rdi, %r13
	movq	%rsi, %r12
	movq	%rdx, %rbp
	.loc 1 298 3 is_stmt 1 view .LVU259
	.loc 1 300 3 view .LVU260
.LVL109:
	.loc 1 300 14 view .LVU261
	.loc 1 297 72 is_stmt 0 view .LVU262
	movl	$0, %ebx
.LVL110:
.L48:
	.loc 1 301 5 is_stmt 1 discriminator 3 view .LVU263
	leaq	0(%rbp,%rbx), %rdx
	leaq	(%r12,%rbx), %rsi
	leaq	0(%r13,%rbx), %rdi
	call	poly_decompose@PLT
.LVL111:
	.loc 1 300 21 discriminator 3 view .LVU264
	.loc 1 300 14 discriminator 3 view .LVU265
	addq	$1024, %rbx
	.loc 1 300 3 is_stmt 0 discriminator 3 view .LVU266
	cmpq	$4096, %rbx
	jne	.L48
	.loc 1 302 1 view .LVU267
	addq	$8, %rsp
	.cfi_def_cfa_offset 40
	popq	%rbx
	.cfi_def_cfa_offset 32
	popq	%rbp
	.cfi_def_cfa_offset 24
.LVL112:
	.loc 1 302 1 view .LVU268
	popq	%r12
	.cfi_def_cfa_offset 16
.LVL113:
	.loc 1 302 1 view .LVU269
	popq	%r13
	.cfi_def_cfa_offset 8
.LVL114:
	.loc 1 302 1 view .LVU270
	ret
	.cfi_endproc
.LFE15:
	.size	polyveck_decompose, .-polyveck_decompose
	.globl	polyveck_make_hint
	.type	polyveck_make_hint, @function
polyveck_make_hint:
.LVL115:
.LFB16:
	.loc 1 318 1 is_stmt 1 view -0
	.cfi_startproc
	.loc 1 318 1 is_stmt 0 view .LVU272
	endbr64
	pushq	%r14
	.cfi_def_cfa_offset 16
	.cfi_offset 14, -16
	pushq	%r13
	.cfi_def_cfa_offset 24
	.cfi_offset 13, -24
	pushq	%r12
	.cfi_def_cfa_offset 32
	.cfi_offset 12, -32
	pushq	%rbp
	.cfi_def_cfa_offset 40
	.cfi_offset 6, -40
	pushq	%rbx
	.cfi_def_cfa_offset 48
	.cfi_offset 3, -48
	movq	%rdi, %r14
	movq	%rsi, %r13
	movq	%rdx, %r12
	.loc 1 319 3 is_stmt 1 view .LVU273
.LVL116:
	.loc 1 321 3 view .LVU274
	.loc 1 321 14 view .LVU275
	.loc 1 318 1 is_stmt 0 view .LVU276
	movl	$0, %ebx
	.loc 1 319 19 view .LVU277
	movl	$0, %ebp
.LVL117:
.L52:
	.loc 1 322 5 is_stmt 1 discriminator 3 view .LVU278
	.loc 1 322 10 is_stmt 0 discriminator 3 view .LVU279
	leaq	(%r12,%rbx), %rdx
	leaq	0(%r13,%rbx), %rsi
	leaq	(%r14,%rbx), %rdi
	call	poly_make_hint@PLT
.LVL118:
	.loc 1 322 7 discriminator 3 view .LVU280
	addl	%eax, %ebp
.LVL119:
	.loc 1 321 21 is_stmt 1 discriminator 3 view .LVU281
	.loc 1 321 14 discriminator 3 view .LVU282
	addq	$1024, %rbx
	.loc 1 321 3 is_stmt 0 discriminator 3 view .LVU283
	cmpq	$4096, %rbx
	jne	.L52
	.loc 1 324 3 is_stmt 1 view .LVU284
	.loc 1 325 1 is_stmt 0 view .LVU285
	movl	%ebp, %eax
	popq	%rbx
	.cfi_def_cfa_offset 40
	popq	%rbp
	.cfi_def_cfa_offset 32
.LVL120:
	.loc 1 325 1 view .LVU286
	popq	%r12
	.cfi_def_cfa_offset 24
.LVL121:
	.loc 1 325 1 view .LVU287
	popq	%r13
	.cfi_def_cfa_offset 16
.LVL122:
	.loc 1 325 1 view .LVU288
	popq	%r14
	.cfi_def_cfa_offset 8
.LVL123:
	.loc 1 325 1 view .LVU289
	ret
	.cfi_endproc
.LFE16:
	.size	polyveck_make_hint, .-polyveck_make_hint
	.globl	polyveck_use_hint
	.type	polyveck_use_hint, @function
polyveck_use_hint:
.LVL124:
.LFB17:
	.loc 1 337 75 is_stmt 1 view -0
	.cfi_startproc
	.loc 1 337 75 is_stmt 0 view .LVU291
	endbr64
	pushq	%r13
	.cfi_def_cfa_offset 16
	.cfi_offset 13, -16
	pushq	%r12
	.cfi_def_cfa_offset 24
	.cfi_offset 12, -24
	pushq	%rbp
	.cfi_def_cfa_offset 32
	.cfi_offset 6, -32
	pushq	%rbx
	.cfi_def_cfa_offset 40
	.cfi_offset 3, -40
	subq	$8, %rsp
	.cfi_def_cfa_offset 48
	movq	%rdi, %r13
	movq	%rsi, %r12
	movq	%rdx, %rbp
	.loc 1 338 3 is_stmt 1 view .LVU292
	.loc 1 340 3 view .LVU293
.LVL125:
	.loc 1 340 14 view .LVU294
	.loc 1 337 75 is_stmt 0 view .LVU295
	movl	$0, %ebx
.LVL126:
.L56:
	.loc 1 341 5 is_stmt 1 discriminator 3 view .LVU296
	leaq	0(%rbp,%rbx), %rdx
	leaq	(%r12,%rbx), %rsi
	leaq	0(%r13,%rbx), %rdi
	call	poly_use_hint@PLT
.LVL127:
	.loc 1 340 21 discriminator 3 view .LVU297
	.loc 1 340 14 discriminator 3 view .LVU298
	addq	$1024, %rbx
	.loc 1 340 3 is_stmt 0 discriminator 3 view .LVU299
	cmpq	$4096, %rbx
	jne	.L56
	.loc 1 342 1 view .LVU300
	addq	$8, %rsp
	.cfi_def_cfa_offset 40
	popq	%rbx
	.cfi_def_cfa_offset 32
	popq	%rbp
	.cfi_def_cfa_offset 24
.LVL128:
	.loc 1 342 1 view .LVU301
	popq	%r12
	.cfi_def_cfa_offset 16
.LVL129:
	.loc 1 342 1 view .LVU302
	popq	%r13
	.cfi_def_cfa_offset 8
.LVL130:
	.loc 1 342 1 view .LVU303
	ret
	.cfi_endproc
.LFE17:
	.size	polyveck_use_hint, .-polyveck_use_hint
.Letext0:
	.file 2 "/usr/include/x86_64-linux-gnu/bits/types.h"
	.file 3 "/usr/include/x86_64-linux-gnu/bits/stdint-uintn.h"
	.file 4 "poly.h"
	.file 5 "polyvec.h"
	.section	.note.GNU-stack,"",@progbits
	.section	.note.gnu.property,"a"
	.align 8
	.long	 1f - 0f
	.long	 4f - 1f
	.long	 5
0:
	.string	 "GNU"
1:
	.align 8
	.long	 0xc0000002
	.long	 3f - 2f
2:
	.long	 0x3
3:
	.align 8
4:
