	.file	"rounding.c"
	.text
.Ltext0:
	.globl	power2round
	.type	power2round, @function
power2round:
.LVL0:
.LFB0:
	.file 1 "rounding.c"
	.loc 1 16 49 view -0
	.cfi_startproc
	.loc 1 16 49 is_stmt 0 view .LVU1
	endbr64
	.loc 1 17 3 is_stmt 1 view .LVU2
	.loc 1 20 3 view .LVU3
.LVL1:
	.loc 1 21 3 view .LVU4
	.loc 1 20 5 is_stmt 0 view .LVU5
	movl	%edi, %edx
	andl	$16383, %edx
.LVL2:
	.loc 1 21 5 view .LVU6
	leal	-8193(%rdx), %eax
.LVL3:
	.loc 1 22 3 is_stmt 1 view .LVU7
	.loc 1 22 11 is_stmt 0 view .LVU8
	cltd
	.loc 1 22 18 view .LVU9
	andl	$16384, %edx
	.loc 1 22 5 view .LVU10
	addl	%eax, %edx
.LVL4:
	.loc 1 23 3 is_stmt 1 view .LVU11
	.loc 1 24 3 view .LVU12
	.loc 1 24 7 is_stmt 0 view .LVU13
	leal	8372226(%rdx), %eax
	movl	%eax, (%rsi)
	.loc 1 25 3 is_stmt 1 view .LVU14
	.loc 1 25 10 is_stmt 0 view .LVU15
	leal	8191(%rdi), %eax
	subl	%edx, %eax
.LVL5:
	.loc 1 26 3 is_stmt 1 view .LVU16
	.loc 1 25 5 is_stmt 0 view .LVU17
	shrl	$14, %eax
	.loc 1 27 1 view .LVU18
	ret
	.cfi_endproc
.LFE0:
	.size	power2round, .-power2round
	.globl	decompose
	.type	decompose, @function
decompose:
.LVL6:
.LFB1:
	.loc 1 43 46 is_stmt 1 view -0
	.cfi_startproc
	.loc 1 43 46 is_stmt 0 view .LVU20
	endbr64
	.loc 1 47 3 is_stmt 1 view .LVU21
	.loc 1 50 3 view .LVU22
.LVL7:
	.loc 1 51 3 view .LVU23
	.loc 1 51 11 is_stmt 0 view .LVU24
	movl	%edi, %eax
	shrl	$19, %eax
	.loc 1 51 18 view .LVU25
	sall	$9, %eax
	.loc 1 50 5 view .LVU26
	movl	%edi, %edx
	andl	$524287, %edx
.LVL8:
	.loc 1 52 3 is_stmt 1 view .LVU27
	.loc 1 52 5 is_stmt 0 view .LVU28
	leal	-261889(%rax,%rdx), %eax
.LVL9:
	.loc 1 53 3 is_stmt 1 view .LVU29
	.loc 1 53 11 is_stmt 0 view .LVU30
	cltd
	.loc 1 53 18 view .LVU31
	andl	$523776, %edx
	.loc 1 53 5 view .LVU32
	addl	%eax, %edx
.LVL10:
	.loc 1 54 3 is_stmt 1 view .LVU33
	.loc 1 55 3 view .LVU34
	.loc 1 54 5 is_stmt 0 view .LVU35
	leal	-261887(%rdx), %eax
.LVL11:
	.loc 1 55 5 view .LVU36
	subl	%eax, %edi
.LVL12:
	.loc 1 58 3 is_stmt 1 view .LVU37
	.loc 1 59 3 view .LVU38
	.loc 1 60 3 view .LVU39
	.loc 1 60 10 is_stmt 0 view .LVU40
	movl	%edi, %eax
.LVL13:
	.loc 1 60 10 view .LVU41
	shrl	$19, %eax
	.loc 1 60 5 view .LVU42
	incl	%eax
.LVL14:
	.loc 1 61 3 is_stmt 1 view .LVU43
	.loc 1 58 9 is_stmt 0 view .LVU44
	decl	%edi
.LVL15:
	.loc 1 58 9 view .LVU45
	shrl	$31, %edi
.LVL16:
	.loc 1 61 5 view .LVU46
	subl	%edi, %eax
.LVL17:
	.loc 1 64 3 is_stmt 1 view .LVU47
	.loc 1 64 15 is_stmt 0 view .LVU48
	addl	$8118530, %edx
.LVL18:
	.loc 1 64 20 view .LVU49
	movl	%eax, %ecx
	shrl	$4, %ecx
	.loc 1 64 15 view .LVU50
	subl	%ecx, %edx
.LVL19:
	.loc 1 64 15 view .LVU51
	movl	%edx, (%rsi)
	.loc 1 65 3 is_stmt 1 view .LVU52
.LVL20:
	.loc 1 66 3 view .LVU53
	.loc 1 65 5 is_stmt 0 view .LVU54
	andl	$15, %eax
.LVL21:
	.loc 1 67 1 view .LVU55
	ret
	.cfi_endproc
.LFE1:
	.size	decompose, .-decompose
	.globl	make_hint
	.type	make_hint, @function
make_hint:
.LVL22:
.LFB2:
	.loc 1 81 62 is_stmt 1 view -0
	.cfi_startproc
	.loc 1 81 62 is_stmt 0 view .LVU57
	endbr64
	.loc 1 82 3 is_stmt 1 view .LVU58
	.loc 1 82 19 is_stmt 0 view .LVU59
	leal	-261889(%rdi), %edx
	.loc 1 83 12 view .LVU60
	movl	$0, %eax
	.loc 1 82 5 view .LVU61
	cmpl	$7856640, %edx
	ja	.L3
	.loc 1 82 45 discriminator 1 view .LVU62
	cmpl	$8118529, %edi
	sete	%al
	.loc 1 82 65 discriminator 1 view .LVU63
	testl	%esi, %esi
	sete	%dl
	.loc 1 82 59 discriminator 1 view .LVU64
	andl	%edx, %eax
	.loc 1 82 38 discriminator 1 view .LVU65
	xorl	$1, %eax
	.loc 1 83 12 discriminator 1 view .LVU66
	movzbl	%al, %eax
.L3:
	.loc 1 86 1 view .LVU67
	ret
	.cfi_endproc
.LFE2:
	.size	make_hint, .-make_hint
	.globl	use_hint
	.type	use_hint, @function
use_hint:
.LVL23:
.LFB3:
	.loc 1 98 62 is_stmt 1 view -0
	.cfi_startproc
	.loc 1 98 62 is_stmt 0 view .LVU69
	endbr64
	pushq	%rbx
	.cfi_def_cfa_offset 16
	.cfi_offset 3, -16
	subq	$16, %rsp
	.cfi_def_cfa_offset 32
	movl	%esi, %ebx
	.loc 1 98 62 view .LVU70
	movq	%fs:40, %rax
	movq	%rax, 8(%rsp)
	xorl	%eax, %eax
	.loc 1 99 3 is_stmt 1 view .LVU71
	.loc 1 101 3 view .LVU72
	.loc 1 101 8 is_stmt 0 view .LVU73
	leaq	4(%rsp), %rsi
.LVL24:
	.loc 1 101 8 view .LVU74
	call	decompose
.LVL25:
	.loc 1 102 3 is_stmt 1 view .LVU75
	.loc 1 102 5 is_stmt 0 view .LVU76
	testl	%ebx, %ebx
	je	.L6
	.loc 1 104 8 is_stmt 1 view .LVU77
	.loc 1 104 10 is_stmt 0 view .LVU78
	cmpl	$8380417, 4(%rsp)
	jbe	.L8
	.loc 1 105 5 is_stmt 1 view .LVU79
	.loc 1 105 16 is_stmt 0 view .LVU80
	incl	%eax
.LVL26:
	.loc 1 105 21 view .LVU81
	andl	$15, %eax
.LVL27:
.L6:
	.loc 1 117 1 view .LVU82
	movq	8(%rsp), %rdx
	xorq	%fs:40, %rdx
	jne	.L11
	addq	$16, %rsp
	.cfi_remember_state
	.cfi_def_cfa_offset 16
	popq	%rbx
	.cfi_def_cfa_offset 8
.LVL28:
	.loc 1 117 1 view .LVU83
	ret
.LVL29:
.L8:
	.cfi_restore_state
	.loc 1 107 5 is_stmt 1 view .LVU84
	.loc 1 107 16 is_stmt 0 view .LVU85
	decl	%eax
.LVL30:
	.loc 1 107 21 view .LVU86
	andl	$15, %eax
.LVL31:
	.loc 1 107 21 view .LVU87
	jmp	.L6
.L11:
	.loc 1 117 1 view .LVU88
	call	__stack_chk_fail@PLT
.LVL32:
	.cfi_endproc
.LFE3:
	.size	use_hint, .-use_hint
.Letext0:
	.file 2 "/usr/include/x86_64-linux-gnu/bits/types.h"
	.file 3 "/usr/include/x86_64-linux-gnu/bits/stdint-intn.h"
	.file 4 "/usr/include/x86_64-linux-gnu/bits/stdint-uintn.h"
	.section	.note.GNU-stack,"",@progbits
	.section	.note.gnu.property,"a"
	.align 8
	.long	 1f - 0f
	.long	 4f - 1f
	.long	 5
0:
	.string	 "GNU"
1:
	.align 8
	.long	 0xc0000002
	.long	 3f - 2f
2:
	.long	 0x3
3:
	.align 8
4:
